###############################################################################
#                                                                             #
# IAR ELF Linker V5.30.0.51174/W32 for ARM              09/Dec/2015  16:16:58 #
# Copyright 2007-2009 IAR Systems AB.                                         #
#                                                                             #
#    Output file  =  E:\BT Printer\FW\src\Project\EWARMv5\Debug\Exe\T6.out    #
#    Map file     =  E:\BT Printer\FW\src\Project\EWARMv5\Debug\List\T6.map   #
#    Command line =  "E:\BT Printer\FW\src\Project\EWARMv5\Debug\Obj\BT816.o" #
#                     "E:\BT Printer\FW\src\Project\EWARMv5\Debug\Obj\DotFill #
#                    .o" "E:\BT Printer\FW\src\Project\EWARMv5\Debug\Obj\ESC_ #
#                    POS_test.o" "E:\BT Printer\FW\src\Project\EWARMv5\Debug\ #
#                    Obj\Event.o" "E:\BT Printer\FW\src\Project\EWARMv5\Debug #
#                    \Obj\JMemory.o" "E:\BT Printer\FW\src\Project\EWARMv5\De #
#                    bug\Obj\KeyScan.o" "E:\BT Printer\FW\src\Project\EWARMv5 #
#                    \Debug\Obj\PaperDetect.o" "E:\BT                         #
#                    Printer\FW\src\Project\EWARMv5\Debug\Obj\TP.o" "E:\BT    #
#                    Printer\FW\src\Project\EWARMv5\Debug\Obj\Terminal_Para_m #
#                    .o" "E:\BT Printer\FW\src\Project\EWARMv5\Debug\Obj\Ther #
#                    malDetect.o" "E:\BT Printer\FW\src\Project\EWARMv5\Debug #
#                    \Obj\TimeBase.o" "E:\BT Printer\FW\src\Project\EWARMv5\D #
#                    ebug\Obj\basic_fun.o" "E:\BT                             #
#                    Printer\FW\src\Project\EWARMv5\Debug\Obj\cortexm3_macro. #
#                    o" "E:\BT Printer\FW\src\Project\EWARMv5\Debug\Obj\crc32 #
#                    .o" "E:\BT Printer\FW\src\Project\EWARMv5\Debug\Obj\data #
#                    _uart.o" "E:\BT Printer\FW\src\Project\EWARMv5\Debug\Obj #
#                    \diskio.o" "E:\BT Printer\FW\src\Project\EWARMv5\Debug\O #
#                    bj\esc_p.o" "E:\BT Printer\FW\src\Project\EWARMv5\Debug\ #
#                    Obj\ff.o" "E:\BT Printer\FW\src\Project\EWARMv5\Debug\Ob #
#                    j\font.o" "E:\BT Printer\FW\src\Project\EWARMv5\Debug\Ob #
#                    j\hardfault_isr_handle_a.o" "E:\BT                       #
#                    Printer\FW\src\Project\EWARMv5\Debug\Obj\hw_config.o"    #
#                    "E:\BT Printer\FW\src\Project\EWARMv5\Debug\Obj\main.o"  #
#                    "E:\BT Printer\FW\src\Project\EWARMv5\Debug\Obj\mass_mal #
#                    .o" "E:\BT Printer\FW\src\Project\EWARMv5\Debug\Obj\memo #
#                    ry.o" "E:\BT Printer\FW\src\Project\EWARMv5\Debug\Obj\pr #
#                    int_head.o" "E:\BT Printer\FW\src\Project\EWARMv5\Debug\ #
#                    Obj\rec_ecc.o" "E:\BT Printer\FW\src\Project\EWARMv5\Deb #
#                    ug\Obj\record_mod.o" "E:\BT                              #
#                    Printer\FW\src\Project\EWARMv5\Debug\Obj\res_spi_new.o"  #
#                    "E:\BT Printer\FW\src\Project\EWARMv5\Debug\Obj\ringbuff #
#                    er.o" "E:\BT Printer\FW\src\Project\EWARMv5\Debug\Obj\sc #
#                    si_data.o" "E:\BT Printer\FW\src\Project\EWARMv5\Debug\O #
#                    bj\spi_flash.o" "E:\BT Printer\FW\src\Project\EWARMv5\De #
#                    bug\Obj\stm32f10x_adc.o" "E:\BT                          #
#                    Printer\FW\src\Project\EWARMv5\Debug\Obj\stm32f10x_bkp.o #
#                    " "E:\BT Printer\FW\src\Project\EWARMv5\Debug\Obj\stm32f #
#                    10x_crc.o" "E:\BT Printer\FW\src\Project\EWARMv5\Debug\O #
#                    bj\stm32f10x_dbgmcu.o" "E:\BT                            #
#                    Printer\FW\src\Project\EWARMv5\Debug\Obj\stm32f10x_dma.o #
#                    " "E:\BT Printer\FW\src\Project\EWARMv5\Debug\Obj\stm32f #
#                    10x_exti.o" "E:\BT Printer\FW\src\Project\EWARMv5\Debug\ #
#                    Obj\stm32f10x_flash.o" "E:\BT                            #
#                    Printer\FW\src\Project\EWARMv5\Debug\Obj\stm32f10x_fsmc. #
#                    o" "E:\BT Printer\FW\src\Project\EWARMv5\Debug\Obj\stm32 #
#                    f10x_gpio.o" "E:\BT Printer\FW\src\Project\EWARMv5\Debug #
#                    \Obj\stm32f10x_i2c.o" "E:\BT                             #
#                    Printer\FW\src\Project\EWARMv5\Debug\Obj\stm32f10x_it.o" #
#                     "E:\BT Printer\FW\src\Project\EWARMv5\Debug\Obj\stm32f1 #
#                    0x_iwdg.o" "E:\BT Printer\FW\src\Project\EWARMv5\Debug\O #
#                    bj\stm32f10x_lib.o" "E:\BT Printer\FW\src\Project\EWARMv #
#                    5\Debug\Obj\stm32f10x_nvic.o" "E:\BT                     #
#                    Printer\FW\src\Project\EWARMv5\Debug\Obj\stm32f10x_pwr.o #
#                    " "E:\BT Printer\FW\src\Project\EWARMv5\Debug\Obj\stm32f #
#                    10x_rcc.o" "E:\BT Printer\FW\src\Project\EWARMv5\Debug\O #
#                    bj\stm32f10x_rtc.o" "E:\BT Printer\FW\src\Project\EWARMv #
#                    5\Debug\Obj\stm32f10x_spi.o" "E:\BT                      #
#                    Printer\FW\src\Project\EWARMv5\Debug\Obj\stm32f10x_systi #
#                    ck.o" "E:\BT Printer\FW\src\Project\EWARMv5\Debug\Obj\st #
#                    m32f10x_tim.o" "E:\BT Printer\FW\src\Project\EWARMv5\Deb #
#                    ug\Obj\stm32f10x_usart.o" "E:\BT                         #
#                    Printer\FW\src\Project\EWARMv5\Debug\Obj\stm32f10x_vecto #
#                    r.o" "E:\BT Printer\FW\src\Project\EWARMv5\Debug\Obj\uar #
#                    t.o" "E:\BT Printer\FW\src\Project\EWARMv5\Debug\Obj\usb #
#                    _app_config.o" "E:\BT Printer\FW\src\Project\EWARMv5\Deb #
#                    ug\Obj\usb_bot.o" "E:\BT Printer\FW\src\Project\EWARMv5\ #
#                    Debug\Obj\usb_core.o" "E:\BT                             #
#                    Printer\FW\src\Project\EWARMv5\Debug\Obj\usb_desc.o"     #
#                    "E:\BT Printer\FW\src\Project\EWARMv5\Debug\Obj\usb_endp #
#                    .o" "E:\BT Printer\FW\src\Project\EWARMv5\Debug\Obj\usb_ #
#                    init.o" "E:\BT Printer\FW\src\Project\EWARMv5\Debug\Obj\ #
#                    usb_int.o" "E:\BT Printer\FW\src\Project\EWARMv5\Debug\O #
#                    bj\usb_istr.o" "E:\BT Printer\FW\src\Project\EWARMv5\Deb #
#                    ug\Obj\usb_mem.o" "E:\BT Printer\FW\src\Project\EWARMv5\ #
#                    Debug\Obj\usb_prop.o" "E:\BT                             #
#                    Printer\FW\src\Project\EWARMv5\Debug\Obj\usb_pwr.o"      #
#                    "E:\BT Printer\FW\src\Project\EWARMv5\Debug\Obj\usb_regs #
#                    .o" "E:\BT Printer\FW\src\Project\EWARMv5\Debug\Obj\usb_ #
#                    scsi.o" "E:\BT Printer\FW\src\Project\EWARMv5\Debug\Obj\ #
#                    usb_sil.o" -o "E:\BT Printer\FW\src\Project\EWARMv5\Debu #
#                    g\Exe\T6.out" --map "E:\BT Printer\FW\src\Project\EWARMv #
#                    5\Debug\List\T6.map" --config "E:\BT                     #
#                    Printer\FW\src\Project\EWARMv5\stm32f10x_debug.icf"      #
#                    --semihosting --entry __iar_program_start                #
#                                                                             #
#                                                                             #
###############################################################################

*******************************************************************************
*** RUNTIME MODEL ATTRIBUTES
***

__endian      = little
__thumb_aware = enabled


*******************************************************************************
*** PLACEMENT SUMMARY
***

"A1":  place at mem:0x8000000 { ro section .intvec };
"P1":  place in [from mem:0x8000000 to mem:0x807ffff] { ro };
"P3":  place in [from mem:0x20000010 to mem:0x2000ffff] {
          rw, block CSTACK, block HEAP };

  Section            Kind        Address     Size  Object
  -------            ----        -------     ----  ------
"A1":                                       0x140
  .intvec            const    0x08000000    0x140  stm32f10x_vector.o [1]
                            - 0x08000140    0x140

"P1":                                     0x1177f
  .text              ro code  0x08000140   0x1e10  ff.o [1]
  .text              ro code  0x08001f50   0x14e4  esc_p.o [1]
  .text              ro code  0x08003434   0x14c0  BT816.o [1]
  .text              ro code  0x080048f4   0x1080  TP.o [1]
  .text              ro code  0x08005974   0x104e  xprintffull.o [3]
  .rodata            const    0x080069c4    0xd80  res_spi_new.o [1]
  .text              ro code  0x08007744    0xc92  record_mod.o [1]
  .text              ro code  0x080083d8    0xbde  usb_core.o [1]
  .text              ro code  0x08008fb8    0xa40  font.o [1]
  .text              ro code  0x080099f8    0x8ec  DotFill.o [1]
  .text              ro code  0x0800a2e4    0x810  spi_flash.o [1]
  .rodata            const    0x0800aaf4    0x600  res_spi_new.o [1]
  .text              ro code  0x0800b0f4    0x518  PaperDetect.o [1]
  .text              ro code  0x0800b60c    0x46c  usb_prop.o [1]
  .text              ro code  0x0800ba78    0x440  usb_scsi.o [1]
  .text              ro code  0x0800beb8    0x43c  usb_bot.o [1]
  .text              ro code  0x0800c2f4    0x40c  res_spi_new.o [1]
  .rodata            const    0x0800c700    0x400  crc32.o [1]
  .text              ro code  0x0800cb00    0x3e4  stm32f10x_it.o [1]
  .text              ro code  0x0800cee4    0x32c  stm32f10x_rcc.o [1]
  .text              ro code  0x0800d210    0x2e0  usb_int.o [1]
  .text              ro code  0x0800d4f0    0x2bc  DblDiv.o [4]
  .text              ro code  0x0800d7ac    0x288  main.o [1]
  .text              ro code  0x0800da34    0x282  ringbuffer.o [1]
  .text              ro code  0x0800dcb8    0x260  usb_regs.o [1]
  .text              ro code  0x0800df18    0x23c  memory.o [1]
  .text              ro code  0x0800e154    0x238  uart.o [1]
  .text              ro code  0x0800e38c    0x1c4  stm32f10x_dma.o [1]
  .text              ro code  0x0800e550    0x1bc  stm32f10x_adc.o [1]
  .text              ro code  0x0800e70c    0x1ac  stm32f10x_usart.o [1]
  .text              ro code  0x0800e8b8    0x1a2  DblMul.o [4]
  .text              ro code  0x0800ea5c    0x17e  DblSub.o [4]
  .text              ro code  0x0800ebdc    0x178  stm32f10x_tim.o [1]
  .text              ro code  0x0800ed54    0x170  stm32f10x_gpio.o [1]
  .text              ro code  0x0800eec4    0x15c  stm32f10x_nvic.o [1]
  .rodata            const    0x0800f020    0x150  TP.o [1]
  .text              ro code  0x0800f170    0x130  Event.o [1]
  .text              ro code  0x0800f2a0    0x130  I64DivMod.o [4]
  .text              ro code  0x0800f3d0    0x12c  TimeBase.o [1]
  .text              ro code  0x0800f4fc    0x124  mass_mal.o [1]
  .text              ro code  0x0800f620    0x114  usb_app_config.o [1]
  .text              ro code  0x0800f734    0x110  xdscale.o [3]
  .text              ro code  0x0800f844    0x10c  ThermalDetect.o [1]
  .rodata            const    0x0800f950    0x100  TP.o [1]
  .text              ro code  0x0800fa50    0x100  Terminal_Para_m.o [1]
  .text              ro code  0x0800fb50     0xec  usb_endp.o [1]
  .text              ro code  0x0800fc3c     0xe8  diskio.o [1]
  .text              ro code  0x0800fd24     0xe6  DblAdd.o [4]
  .text              ro code  0x0800fe0c     0xd4  print_head.o [1]
  .text              ro code  0x0800fee0     0xbc  xxmemxmalloc.o [3]
  .text              ro code  0x0800ff9c     0xb4  xdnorm.o [3]
  .text              ro code  0x08010050     0xb0  KeyScan.o [1]
  .text              ro code  0x08010100     0xb0  fflush.o [3]
  .text              ro code  0x080101b0     0xac  data_uart.o [1]
  .text              ro code  0x0801025c     0x9c  usb_istr.o [1]
  .text              ro code  0x080102f8     0x8e  packbits_init2.o [4]
  .text              ro code  0x08010388     0x8c  xsyslock.o [3]
  .text              ro code  0x08010414     0x88  stm32f10x_systick.o [1]
  .text              ro code  0x0801049c     0x88  xxmemxfree.o [3]
  .text              ro code  0x08010524     0x84  xreportassert.o [3]
  .text              ro code  0x080105a8     0x7a  cortexm3_macro.o [1]
  .text              ro code  0x08010624     0x7a  stm32f10x_spi.o [1]
  .text              ro code  0x080106a0     0x70  ABImemcpy.o [4]
  .text              ro code  0x08010710     0x70  cppinit.o [3]
  .rodata            const    0x08010780     0x6c  TP.o [1]
  .text              ro code  0x080107ec     0x66  ABImemset.o [4]
  .text              ro code  0x08010854     0x62  memcmp.o [4]
  .text              ro code  0x080108b8     0x5c  xencoding_sb.o [3]
  .text              ro code  0x08010914     0x5a  usb_sil.o [1]
  .text              ro code  0x08010970     0x58  memchr.o [4]
  .text              ro code  0x080109c8     0x56  DblToI32.o [4]
  .text              ro code  0x08010a20     0x54  usb_mem.o [1]
  .text              ro code  0x08010a74     0x54  iarwstd.o [5]
  .rodata            const    0x08010ac8     0x48  xlocale_c.o [3]
  .text              ro code  0x08010b10     0x44  stm32f10x_flash.o [1]
  .text              ro code  0x08010b54     0x44  strcpy.o [4]
  .text              ro code  0x08010b98     0x44  xassert.o [3]
  .rodata            const    0x08010bdc     0x40  spi_flash.o [1]
  .text              ro code  0x08010c1c     0x40  usb_init.o [1]
  .text              ro code  0x08010c5c     0x40  snprintf.o [3]
  .rodata            const    0x08010c9c     0x3c  res_spi_new.o [1]
  .text              ro code  0x08010cd8     0x3c  usb_pwr.o [1]
  .text              ro code  0x08010d14     0x36  strlen.o [4]
  .rodata            const    0x08010d4c     0x34  ThermalDetect.o [1]
  .rodata            const    0x08010d80     0x30  xreportassert.o [3]
  .text              ro code  0x08010db0     0x30  MtxWrapper.o [3]
  .text              ro code  0x08010de0     0x2e  DblCmpLe.o [4]
  .text              ro code  0x08010e10     0x2e  DblCmpGe.o [4]
  .text              ro code  0x08010e40     0x2e  I32ToDbl.o [4]
  .rodata            const    0x08010e70     0x2c  ringbuffer.o [1]
  .text              ro code  0x08010e9c     0x2c  JMemory.o [1]
  .rodata            const    0x08010ec8     0x28  BT816.o [1]
  .rodata            const    0x08010ef0     0x28  res_spi_new.o [1]
  .rodata            const    0x08010f18     0x28  usb_desc.o [1]
  .text              ro code  0x08010f40     0x28  crc32.o [1]
  .text              ro code  0x08010f68     0x28  xgetmemchunk.o [3]
  .rodata            const    0x08010f90     0x24  TP.o [1]
  .rodata            const    0x08010fb4     0x24  TP.o [1]
  .rodata            const    0x08010fd8     0x24  TP.o [1]
  .iar.init_table    const    0x08010ffc     0x2c  - Linker created -
  .rodata            const    0x08011028     0x20  TP.o [1]
  .rodata            const    0x08011048     0x20  usb_desc.o [1]
  .rodata            const    0x08011068     0x20  usb_desc.o [1]
  .rodata            const    0x08011088     0x20  usb_desc.o [1]
  .text              ro code  0x080110a8     0x20  printf.o [3]
  .text              ro code  0x080110c8     0x20  xmbtowc.o [3]
  .text              ro code  0x080110e8     0x20  iarwrite.o [5]
  .text              ro code  0x08011108     0x1e  dwrite.o [5]
  .text              ro code  0x08011128     0x1c  data_init2.o [4]
  .text              ro code  0x08011144     0x1a  xsnprout.o [3]
  .text              ro code  0x0801115e     0x1a  xwctomb.o [3]
  .text              ro code  0x08011178     0x1a  zero_init2.o [4]
  .rodata            const    0x08011194     0x18  TP.o [1]
  .rodata            const    0x080111ac     0x18  TP.o [1]
  .rodata            const    0x080111c4     0x18  TP.o [1]
  .rodata            const    0x080111dc     0x18  ff.o [1]
  .rodata            const    0x080111f4     0x18  ff.o [1]
  .rodata            const    0x0801120c     0x18  main.o [1]
  .rodata            const    0x08011224     0x18  stm32f10x_it.o [1]
  .text              ro code  0x0801123c     0x18  cmain.o [4]
  .text              ro code  0x08011254     0x16  strchr.o [4]
  .text              ro code  0x0801126a     0x16  xprout.o [3]
  .rodata            const    0x08011280     0x14  TP.o [1]
  .rodata            const    0x08011294     0x14  TP.o [1]
  .rodata            const    0x080112a8     0x14  TP.o [1]
  .rodata            const    0x080112bc     0x14  TP.o [1]
  .rodata            const    0x080112d0     0x14  TP.o [1]
  .rodata            const    0x080112e4     0x14  TP.o [1]
  .rodata            const    0x080112f8     0x14  ff.o [1]
  .rodata            const    0x0801130c     0x14  ff.o [1]
  .rodata            const    0x08011320     0x14  usb_desc.o [1]
  .rodata            const    0x08011334     0x14  usb_desc.o [1]
  .text              ro code  0x08011348     0x14  exit.o [5]
  .text              ro code  0x0801135c     0x14  localeconv.o [3]
  .text              ro code  0x08011370     0x14  setlocale.o [3]
  .text              ro code  0x08011384     0x14  BT816.o [1]
  CODE               ro code  0x08011398     0x12  hardfault_isr_handle_a.o [1]
  .rodata            const    0x080113ac     0x10  TP.o [1]
  .rodata            const    0x080113bc     0x10  TP.o [1]
  .rodata            const    0x080113cc     0x10  TP.o [1]
  .rodata            const    0x080113dc     0x10  TP.o [1]
  .rodata            const    0x080113ec     0x10  TP.o [1]
  .rodata            const    0x080113fc     0x10  TP.o [1]
  .rodata            const    0x0801140c     0x10  TP.o [1]
  .rodata            const    0x0801141c     0x10  ff.o [1]
  .rodata            const    0x0801142c     0x10  main.o [1]
  .rodata            const    0x0801143c     0x10  res_spi_new.o [1]
  .rodata            const    0x0801144c     0x10  stm32f10x_rcc.o [1]
  .rodata            const    0x0801145c     0x10  xprintffull.o [3]
  .text              ro code  0x0801146c     0x10  write.o [5]
  .text              ro code  0x0801147c      0xe  cexit.o [4]
  .text              ro code  0x0801148a      0xe  BT816.o [1]
  .text              ro code  0x08011498      0xe  div.o [3]
  .rodata            const    0x080114a8      0xc  BT816.o [1]
  .rodata            const    0x080114b4      0xc  BT816.o [1]
  .rodata            const    0x080114c0      0xc  BT816.o [1]
  .rodata            const    0x080114cc      0xc  BT816.o [1]
  .rodata            const    0x080114d8      0xc  BT816.o [1]
  .rodata            const    0x080114e4      0xc  BT816.o [1]
  .rodata            const    0x080114f0      0xc  BT816.o [1]
  .rodata            const    0x080114fc      0xc  BT816.o [1]
  .rodata            const    0x08011508      0xc  TP.o [1]
  .rodata            const    0x08011514      0xc  TP.o [1]
  .rodata            const    0x08011520      0xc  esc_p.o [1]
  .rodata            const    0x0801152c      0xc  ff.o [1]
  .rodata            const    0x08011538      0xc  main.o [1]
  .rodata            const    0x08011544      0xc  ringbuffer.o [1]
  .rodata            const    0x08011550      0xc  ringbuffer.o [1]
  .rodata            const    0x0801155c      0xc  stm32f10x_it.o [1]
  .rodata            const    0x08011568      0xc  stm32f10x_it.o [1]
  .rodata            const    0x08011574      0xc  stm32f10x_it.o [1]
  .rodata            const    0x08011580      0xc  stm32f10x_it.o [1]
  .rodata            const    0x0801158c      0xc  stm32f10x_it.o [1]
  .rodata            const    0x08011598      0xc  stm32f10x_it.o [1]
  .rodata            const    0x080115a4      0xc  stm32f10x_it.o [1]
  .rodata            const    0x080115b0      0xc  stm32f10x_it.o [1]
  .rodata            const    0x080115bc      0xc  stm32f10x_it.o [1]
  .rodata            const    0x080115c8      0xc  stm32f10x_it.o [1]
  .rodata            const    0x080115d4      0xc  stm32f10x_it.o [1]
  .rodata            const    0x080115e0      0xc  stm32f10x_it.o [1]
  .rodata            const    0x080115ec      0xc  stm32f10x_it.o [1]
  .text              ro code  0x080115f8      0xc  putchar.o [3]
  .text              ro code  0x08011604      0xa  xmbcurmax.o [3]
  .rodata            const    0x08011610      0x8  BT816.o [1]
  .rodata            const    0x08011618      0x8  BT816.o [1]
  .rodata            const    0x08011620      0x8  BT816.o [1]
  .rodata            const    0x08011628      0x8  TP.o [1]
  .rodata            const    0x08011630      0x8  esc_p.o [1]
  .rodata            const    0x08011638      0x8  esc_p.o [1]
  .rodata            const    0x08011640      0x8  xprintffull.o [3]
  .rodata            const    0x08011648      0x8  localeconv.o [3]
  .rodata            const    0x08011650      0x8  localeconv.o [3]
  .rodata            const    0x08011658      0x8  xencoding_sb.o [3]
  .rodata            const    0x08011660      0x8  xencoding_sb.o [3]
  .rodata            const    0x08011668      0x8  xlocale_c.o [3]
  .rodata            const    0x08011670      0x8  xlocale_c.o [3]
  .text              ro code  0x08011678      0x8  abort.o [3]
  .text              ro code  0x08011680      0x6  exit.o [3]
  .rodata            const    0x08011688      0x4  stm32f10x_rcc.o [1]
  .rodata            const    0x0801168c      0x4  usb_desc.o [1]
  .text              ro code  0x08011690      0x2  I64DivZer.o [4]
  .text              ro code  0x08011692      0x4  low_level_init.o [3]
  .rodata            const    0x08011696      0x2  localeconv.o [3]
  .rodata            const    0x08011698      0x2  xlocale_c.o [3]
  .rodata            const    0x0801169a      0x1  localeconv.o [3]
  .rodata            const    0x0801169b      0x1  setlocale.o [3]
  .rodata            const    0x0801169c      0x1  xlocale_c.o [3]
  Initializer bytes  ro data  0x0801169d    0x222  <for P3 s0>
                            - 0x080118bf  0x1177f

"P3", part 1 of 3:                          0xde0
  CSTACK                      0x20000010    0x800  <Block>
    CSTACK           uninit   0x20000010    0x800  <Block tail>
  HEAP                        0x20000810    0x400  <Block>
    HEAP             uninit   0x20000810    0x400  <Block tail>
  .iar.dynexit                0x20000c10    0x1e0  <Block>
    .iar.dynexit     uninit   0x20000c10      0xc  cppinit.o [3]
    .iar.dynexit     uninit   0x20000c1c    0x1d4  <Block tail>
                            - 0x20000df0    0xde0

"P3", part 2 of 3:                         0xc7c8
  .bss               zero     0x20000df0   0x4484  esc_p.o [1]
  .bss               zero     0x20005274   0x3e80  main.o [1]
  .bss               zero     0x200090f4   0x1400  uart.o [1]
  .bss               zero     0x2000a4f4   0x1000  spi_flash.o [1]
  .bss               zero     0x2000b4f4    0x800  BT816.o [1]
  .bss               zero     0x2000bcf4    0x800  memory.o [1]
  .bss               zero     0x2000c4f4    0x310  TP.o [1]
  .bss               zero     0x2000c804    0x230  res_spi_new.o [1]
  .bss               zero     0x2000ca34    0x228  res_spi_new.o [1]
  .bss               zero     0x2000cc5c    0x200  res_spi_new.o [1]
  .bss               zero     0x2000ce5c    0x190  JMemory.o [1]
  .bss               zero     0x2000cfec    0x188  TP.o [1]
  .bss               zero     0x2000d174     0x80  BT816.o [1]
  .bss               zero     0x2000d1f4     0x50  uart.o [1]
  .bss               zero     0x2000d244     0x50  xfiles.o [3]
  .bss               zero     0x2000d294     0x50  xfiles.o [3]
  .bss               zero     0x2000d2e4     0x40  Event.o [1]
  .bss               zero     0x2000d324     0x40  Terminal_Para_m.o [1]
  .bss               zero     0x2000d364     0x40  usb_bot.o [1]
  .bss               zero     0x2000d3a4     0x40  usb_endp.o [1]
  .bss               zero     0x2000d3e4     0x30  BT816.o [1]
  .bss               zero     0x2000d414     0x2c  record_mod.o [1]
  .bss               zero     0x2000d440     0x28  PaperDetect.o [1]
  .bss               zero     0x2000d468     0x20  usb_bot.o [1]
  .bss               zero     0x2000d488     0x1c  usb_init.o [1]
  .bss               zero     0x2000d4a4     0x14  xsyslock.o [3]
  .bss               zero     0x2000d4b8     0x10  record_mod.o [1]
  .bss               zero     0x2000d4c8     0x10  usb_bot.o [1]
  .bss               zero     0x2000d4d8      0x8  TimeBase.o [1]
  .bss               zero     0x2000d4e0      0x8  mass_mal.o [1]
  .bss               zero     0x2000d4e8      0x8  mass_mal.o [1]
  .bss               zero     0x2000d4f0      0x8  mass_mal.o [1]
  .bss               zero     0x2000d4f8      0x8  scsi_data.o [1]
  .bss               zero     0x2000d500      0x8  scsi_data.o [1]
  .bss               zero     0x2000d508      0x8  xxmemxmalloc.o [3]
  .bss               zero     0x2000d510      0x4  PaperDetect.o [1]
  .bss               zero     0x2000d514      0x4  ff.o [1]
  .bss               zero     0x2000d518      0x4  main.o [1]
  .bss               zero     0x2000d51c      0x4  mass_mal.o [1]
  .bss               zero     0x2000d520      0x4  memory.o [1]
  .bss               zero     0x2000d524      0x4  memory.o [1]
  .bss               zero     0x2000d528      0x4  memory.o [1]
  .bss               zero     0x2000d52c      0x4  memory.o [1]
  .bss               zero     0x2000d530      0x4  memory.o [1]
  .bss               zero     0x2000d534      0x4  memory.o [1]
  .bss               zero     0x2000d538      0x4  memory.o [1]
  .bss               zero     0x2000d53c      0x4  memory.o [1]
  .bss               zero     0x2000d540      0x4  res_spi_new.o [1]
  .bss               zero     0x2000d544      0x4  spi_flash.o [1]
  .bss               zero     0x2000d548      0x4  spi_flash.o [1]
  .bss               zero     0x2000d54c      0x4  spi_flash.o [1]
  .bss               zero     0x2000d550      0x4  spi_flash.o [1]
  .bss               zero     0x2000d554      0x4  uart.o [1]
  .bss               zero     0x2000d558      0x4  usb_bot.o [1]
  .bss               zero     0x2000d55c      0x4  usb_bot.o [1]
  .bss               zero     0x2000d560      0x4  usb_core.o [1]
  .bss               zero     0x2000d564      0x4  usb_endp.o [1]
  .bss               zero     0x2000d568      0x4  usb_init.o [1]
  .bss               zero     0x2000d56c      0x4  usb_init.o [1]
  .bss               zero     0x2000d570      0x4  usb_init.o [1]
  .bss               zero     0x2000d574      0x4  usb_prop.o [1]
  .bss               zero     0x2000d578      0x4  usb_pwr.o [1]
  .bss               zero     0x2000d57c      0x4  xgetmemchunk.o [3]
  .bss               zero     0x2000d580      0x4  MtxWrapper.o [3]
  .bss               zero     0x2000d584      0x4  MtxWrapper.o [3]
  .bss               zero     0x2000d588      0x4  MtxWrapper.o [3]
  .bss               zero     0x2000d58c      0x4  MtxWrapper.o [3]
  .bss               zero     0x2000d590      0x4  iarwstd.o [5]
  .bss               zero     0x2000d594      0x2  DotFill.o [1]
  .bss               zero     0x2000d596      0x2  ff.o [1]
  .bss               zero     0x2000d598      0x2  usb_bot.o [1]
  .bss               zero     0x2000d59a      0x2  usb_init.o [1]
  .bss               zero     0x2000d59c      0x2  usb_int.o [1]
  .bss               zero     0x2000d59e      0x2  usb_int.o [1]
  .bss               zero     0x2000d5a0      0x2  usb_istr.o [1]
  .bss               zero     0x2000d5a2      0x1  BT816.o [1]
  .bss               zero     0x2000d5a3      0x1  Event.o [1]
  .bss               zero     0x2000d5a4      0x1  Event.o [1]
  .bss               zero     0x2000d5a5      0x1  KeyScan.o [1]
  .bss               zero     0x2000d5a6      0x1  PaperDetect.o [1]
  .bss               zero     0x2000d5a7      0x1  PaperDetect.o [1]
  .bss               zero     0x2000d5a8      0x1  PaperDetect.o [1]
  .bss               zero     0x2000d5a9      0x1  TP.o [1]
  .bss               zero     0x2000d5aa      0x1  Terminal_Para_m.o [1]
  .bss               zero     0x2000d5ab      0x1  esc_p.o [1]
  .bss               zero     0x2000d5ac      0x1  main.o [1]
  .bss               zero     0x2000d5ad      0x1  memory.o [1]
  .bss               zero     0x2000d5ae      0x1  spi_flash.o [1]
  .bss               zero     0x2000d5af      0x1  usb_app_config.o [1]
  .bss               zero     0x2000d5b0      0x1  usb_app_config.o [1]
  .bss               zero     0x2000d5b1      0x1  usb_bot.o [1]
  .bss               zero     0x2000d5b2      0x1  usb_core.o [1]
  .bss               zero     0x2000d5b3      0x1  usb_init.o [1]
  .bss               zero     0x2000d5b4      0x1  usb_istr.o [1]
  .bss               zero     0x2000d5b5      0x1  usb_prop.o [1]
                            - 0x2000d5b6   0xc7c6

"P3", part 3 of 3:                          0x334
  P3 s0                       0x2000d5b8    0x334  <Init block>
    .data            inited   0x2000d5b8     0x84  setlocale.o [3]
    .data            inited   0x2000d63c     0x4c  localeconv.o [3]
    .data            inited   0x2000d688     0x40  xfiles.o [3]
    .data            inited   0x2000d6c8     0x40  xfiles.o [3]
    .data            inited   0x2000d708     0x40  xfiles.o [3]
    .data            inited   0x2000d748     0x30  usb_prop.o [1]
    .data            inited   0x2000d778     0x24  scsi_data.o [1]
    .data            inited   0x2000d79c     0x24  scsi_data.o [1]
    .data            inited   0x2000d7c0     0x24  usb_prop.o [1]
    .data            inited   0x2000d7e4     0x20  res_spi_new.o [1]
    .data            inited   0x2000d804     0x20  usb_prop.o [1]
    .data            inited   0x2000d824     0x20  xfiles.o [3]
    .data            inited   0x2000d844     0x1c  usb_desc.o [1]
    .data            inited   0x2000d860     0x1c  usb_istr.o [1]
    .data            inited   0x2000d87c     0x1c  usb_istr.o [1]
    .data            inited   0x2000d898     0x14  scsi_data.o [1]
    .data            inited   0x2000d8ac     0x10  usb_prop.o [1]
    .data            inited   0x2000d8bc     0x10  usb_prop.o [1]
    .data            inited   0x2000d8cc      0xc  scsi_data.o [1]
    .data            inited   0x2000d8d8      0x8  scsi_data.o [1]
    .data            inited   0x2000d8e0      0x4  scsi_data.o [1]
    .data            inited   0x2000d8e4      0x4  usb_prop.o [1]
    .data            inited   0x2000d8e8      0x4  cppinit.o [3]
                            - 0x2000d8ec    0x334


*******************************************************************************
*** INIT TABLE
***

          Address     Size
          -------     ----
Zero (__iar_zero_init2)
    1 destination range, total size 0xc7c6:
          0x20000df0  0xc7c6

Copy/packbits (__iar_packbits_init2)
    1 source range, total size 0x222 (66% of destination):
           0x801169d   0x222
    1 destination range, total size 0x334:
          0x2000d5b8   0x334


*******************************************************************************
*** MODULE SUMMARY
***

    Module                    ro code  ro data  rw data
    ------                    -------  -------  -------
E:\BT Printer\FW\src\Project\EWARMv5\Debug\Obj: [1]
    BT816.o                     5 346      160    2 225
    DotFill.o                   2 284                 2
    Event.o                       304                66
    JMemory.o                      44               400
    KeyScan.o                     176                 1
    PaperDetect.o               1 304                47
    TP.o                        4 224    1 176    1 177
    Terminal_Para_m.o             256                65
    ThermalDetect.o               268       52
    TimeBase.o                    300                 8
    cortexm3_macro.o              122
    crc32.o                        40    1 024
    data_uart.o                   172
    diskio.o                      232
    esc_p.o                     5 348       28   17 541
    ff.o                        7 696      116        6
    font.o                      2 624
    hardfault_isr_handle_a.o       18
    main.o                        648       52   16 005
    mass_mal.o                    292                28
    memory.o                      572             2 081
    print_head.o                  212
    record_mod.o                3 218                60
    res_spi_new.o               1 036    5 129    1 660
    ringbuffer.o                  642       68
    scsi_data.o                             77      132
    spi_flash.o                 2 064       64    4 113
    stm32f10x_adc.o               444
    stm32f10x_dma.o               452
    stm32f10x_flash.o              68
    stm32f10x_gpio.o              368
    stm32f10x_it.o                996      180
    stm32f10x_nvic.o              348
    stm32f10x_rcc.o               812       20
    stm32f10x_spi.o               122
    stm32f10x_systick.o           136
    stm32f10x_tim.o               376
    stm32f10x_usart.o             428
    stm32f10x_vector.o                     320
    uart.o                        568             5 204
    usb_app_config.o              276                 2
    usb_bot.o                   1 084               123
    usb_core.o                  3 038                 5
    usb_desc.o                             198       28
    usb_endp.o                    236                68
    usb_init.o                     64                43
    usb_int.o                     736                 4
    usb_istr.o                    156       38       59
    usb_mem.o                      84
    usb_prop.o                  1 132      101      157
    usb_pwr.o                      60                 4
    usb_regs.o                    608
    usb_scsi.o                  1 088
    usb_sil.o                      90
    ---------------------------------------------------
    Total:                     53 212    8 803   51 314

command line: [2]
    ---------------------------------------------------
    Total:

dl7M_tl_if.a: [3]
    MtxWrapper.o                   48                16
    abort.o                         8
    cppinit.o                     112        3       16
    div.o                          14
    exit.o                          6
    fflush.o                      176
    localeconv.o                   20       70       76
    low_level_init.o                4
    printf.o                       32
    putchar.o                      12
    setlocale.o                    20       88      132
    snprintf.o                     64
    xassert.o                      68
    xdnorm.o                      180
    xdscale.o                     272
    xencoding_sb.o                 92       16
    xfiles.o                               150      384
    xgetmemchunk.o                 40                 4
    xlocale_c.o                             91
    xmbcurmax.o                    10
    xmbtowc.o                      32
    xprintffull.o               4 174       24
    xprout.o                       22
    xreportassert.o               132       48
    xsnprout.o                     26
    xsyslock.o                    140                20
    xwctomb.o                      26
    xxmemxfree.o                  136
    xxmemxmalloc.o                188                 8
    ---------------------------------------------------
    Total:                      6 054      490      656

rt7M_tl.a: [4]
    ABImemcpy.o                   112
    ABImemset.o                   102
    DblAdd.o                      230
    DblCmpGe.o                     46
    DblCmpLe.o                     46
    DblDiv.o                      700
    DblMul.o                      418
    DblSub.o                      382
    DblToI32.o                     86
    I32ToDbl.o                     46
    I64DivMod.o                   304
    I64DivZer.o                     2
    cexit.o                        14
    cmain.o                        24
    data_init2.o                   28
    memchr.o                       88
    memcmp.o                       98
    packbits_init2.o              142
    strchr.o                       22
    strcpy.o                       68
    strlen.o                       54
    zero_init2.o                   26
    ---------------------------------------------------
    Total:                      3 038

shb_l.a: [5]
    dwrite.o                       30
    exit.o                         20
    iarwrite.o                     32
    iarwstd.o                      84                 4
    write.o                        16
    ---------------------------------------------------
    Total:                        182                 4

    Gaps                           32       16
    Linker created                          44    3 540
-------------------------------------------------------
    Grand Total:               62 518    9 353   55 514


*******************************************************************************
*** ENTRY LIST
***

Entry                      Address    Size  Type      Object
-----                      -------    ----  ----      ------
.iar.dynexit$$Base      0x20000c10           --   Gb  - Linker created -
.iar.dynexit$$Limit     0x20000df0           --   Gb  - Linker created -
ADC1_2_IRQHandler       0x0800cc8d     0x2  Code  Gb  stm32f10x_it.o [1]
ADC3_IRQHandler         0x0800ce3b     0x2  Code  Gb  stm32f10x_it.o [1]
ADCPrescTable           0x08011688     0x4  Data  Lc  stm32f10x_rcc.o [1]
ADC_Cmd                 0x0800e5a1    0x1a  Code  Gb  stm32f10x_adc.o [1]
ADC_DMACmd              0x0800e5bb    0x1a  Code  Gb  stm32f10x_adc.o [1]
ADC_GetCalibrationStatus
                        0x0800e601    0x18  Code  Gb  stm32f10x_adc.o [1]
ADC_GetResetCalibrationStatus
                        0x0800e5df    0x18  Code  Gb  stm32f10x_adc.o [1]
ADC_Init                0x0800e551    0x50  Code  Gb  stm32f10x_adc.o [1]
ADC_RegularChannelConfig
                        0x0800e633    0xda  Code  Gb  stm32f10x_adc.o [1]
ADC_ResetCalibration    0x0800e5d5     0xa  Code  Gb  stm32f10x_adc.o [1]
ADC_SoftwareStartConvCmd
                        0x0800e619    0x1a  Code  Gb  stm32f10x_adc.o [1]
ADC_StartCalibration    0x0800e5f7     0xa  Code  Gb  stm32f10x_adc.o [1]
AD_Value                0x2000d440    0x28  Data  Gb  PaperDetect.o [1]
APBAHBPrescTable        0x0801144c    0x10  Data  Lc  stm32f10x_rcc.o [1]
BT816_Channel1_RxISRHandler
                        0x08003f6d    0xb6  Code  Gb  BT816.o [1]
BT816_Channel2_RxISRHandler
                        0x08004039    0xc8  Code  Gb  BT816.o [1]
BT816_Channel3_RxISRHandler
                        0x08004101    0xcc  Code  Gb  BT816.o [1]
BT816_Channel4_RxISRHandler
                        0x080041cd    0xd0  Code  Gb  BT816.o [1]
BT816_GPIO_config       0x080034a1   0x658  Code  Lc  BT816.o [1]
BT816_NVIC_config       0x08003b19   0x1e0  Code  Lc  BT816.o [1]
BT816_Reset             0x08004309    0x98  Code  Gb  BT816.o [1]
BT816_connect_status    0x0800457d   0x17c  Code  Gb  BT816.o [1]
BT816_init              0x08004711   0x1e4  Code  Gb  BT816.o [1]
BT816_query_name        0x080043a1    0xd0  Code  Gb  BT816.o [1]
BT816_recbuffer         0x2000b4f4   0x800  Data  Gb  BT816.o [1]
BT816_res               0x2000d3e4    0x30  Data  Gb  BT816.o [1]
BT816_reset_resVar      0x08003e6d    0xf2  Code  Lc  BT816.o [1]
BT816_send_buff         0x2000d174    0x80  Data  Lc  BT816.o [1]
BT816_send_data         0x080046f9    0x18  Code  Gb  BT816.o [1]
BT816_set_name          0x08004471    0x84  Code  Gb  BT816.o [1]
BT816_set_pin           0x080044f5    0x88  Code  Gb  BT816.o [1]
BT816_write_cmd         0x0800429d    0x6c  Code  Lc  BT816.o [1]
Block_Read_count        0x2000d520     0x4  Data  Gb  memory.o [1]
Block_offset            0x2000d524     0x4  Data  Gb  memory.o [1]
Bot_Abort               0x0800c2b9    0x3c  Code  Gb  usb_bot.o [1]
Bot_State               0x2000d5b1     0x1  Data  Gb  usb_bot.o [1]
BufFillToPrn            0x08009c17    0xdc  Code  Gb  DotFill.o [1]
BufFillToPrn_0          0x08009cf3    0x86  Code  Gb  DotFill.o [1]
Bulk_Data_Buff          0x2000d364    0x40  Data  Gb  usb_bot.o [1]
BusFaultException       0x0800cbf3     0x2  Code  Gb  stm32f10x_it.o [1]
Byte2DotNumTbl          0x0800f950   0x100  Data  Gb  TP.o [1]
ByteSwap                0x0800df09    0x10  Code  Gb  usb_regs.o [1]
CAN_RX1_IRQHandler      0x0800cc9f     0x2  Code  Gb  stm32f10x_it.o [1]
CAN_SCE_IRQHandler      0x0800cca1     0x2  Code  Gb  stm32f10x_it.o [1]
CBW                     0x2000d468    0x20  Data  Gb  usb_bot.o [1]
CBW_Decode              0x0800bf99   0x298  Code  Gb  usb_bot.o [1]
CSTACK$$Base            0x20000010           --   Gb  - Linker created -
CSTACK$$Limit           0x20000810           --   Gb  - Linker created -
CSW                     0x2000d4c8    0x10  Data  Gb  usb_bot.o [1]
CTR_HP                  0x0800d43d    0x9c  Code  Gb  usb_int.o [1]
CTR_LP                  0x0800d211   0x22c  Code  Gb  usb_int.o [1]
ClearDTOG_RX            0x0800dda9    0x32  Code  Gb  usb_regs.o [1]
ClearDTOG_TX            0x0800dddb    0x32  Code  Gb  usb_regs.o [1]
Clear_Status_Out        0x0800dd85    0x24  Code  Gb  usb_regs.o [1]
Config_Descriptor       0x2000d8bc    0x10  Data  Gb  usb_prop.o [1]
Counter                 0x2000d528     0x4  Data  Gb  memory.o [1]
DMA1_Channel1_IRQHandler
                        0x0800cc1b     0x2  Code  Gb  stm32f10x_it.o [1]
DMA1_Channel2_IRQHandler
                        0x0800cc1d    0x20  Code  Gb  stm32f10x_it.o [1]
DMA1_Channel3_IRQHandler
                        0x0800cc3d     0x2  Code  Gb  stm32f10x_it.o [1]
DMA1_Channel4_IRQHandler
                        0x0800cc41    0x24  Code  Gb  stm32f10x_it.o [1]
DMA1_Channel5_IRQHandler
                        0x0800cc65     0x2  Code  Gb  stm32f10x_it.o [1]
DMA1_Channel6_IRQHandler
                        0x0800cc67     0x2  Code  Gb  stm32f10x_it.o [1]
DMA1_Channel7_IRQHandler
                        0x0800cc69    0x24  Code  Gb  stm32f10x_it.o [1]
DMA2_Channel1_IRQHandler
                        0x0800ceb7     0x2  Code  Gb  stm32f10x_it.o [1]
DMA2_Channel2_IRQHandler
                        0x0800ceb9     0x2  Code  Gb  stm32f10x_it.o [1]
DMA2_Channel3_IRQHandler
                        0x0800cebb     0x2  Code  Gb  stm32f10x_it.o [1]
DMA2_Channel4_5_IRQHandler
                        0x0800cebd    0x28  Code  Gb  stm32f10x_it.o [1]
DMA_ClearFlag           0x0800e509    0x12  Code  Gb  stm32f10x_dma.o [1]
DMA_Cmd                 0x0800e4d1    0x1a  Code  Gb  stm32f10x_dma.o [1]
DMA_DeInit              0x0800e38d   0x100  Code  Gb  stm32f10x_dma.o [1]
DMA_GetCurrDataCounter  0x0800e503     0x6  Code  Gb  stm32f10x_dma.o [1]
DMA_GetITStatus         0x0800e51b    0x26  Code  Gb  stm32f10x_dma.o [1]
DMA_ITConfig            0x0800e4eb    0x18  Code  Gb  stm32f10x_dma.o [1]
DMA_Init                0x0800e48d    0x44  Code  Gb  stm32f10x_dma.o [1]
DataStageIn             0x08008913    0xb6  Code  Lc  usb_core.o [1]
DataStageOut            0x0800885b    0xb8  Code  Lc  usb_core.o [1]
Data_Buffer             0x2000bcf4   0x800  Data  Gb  memory.o [1]
Data_Len                0x2000d598     0x2  Data  Gb  usb_bot.o [1]
Data_Mul_MaxPacketSize  0x2000d5b2     0x1  Data  Gb  usb_core.o [1]
Data_Setup0             0x08008b25   0x294  Code  Lc  usb_core.o [1]
DebugMonitor            0x0800cbf7     0x2  Code  Gb  stm32f10x_it.o [1]
DefaultTerminalPara     0x0800fb09    0x44  Code  Gb  Terminal_Para_m.o [1]
Device_Descriptor       0x2000d8ac    0x10  Data  Gb  usb_prop.o [1]
Device_Info             0x2000d488    0x1c  Data  Gb  usb_init.o [1]
Device_Property         0x2000d748    0x30  Data  Gb  usb_prop.o [1]
Device_Table            0x2000d8e4     0x4  Data  Gb  usb_prop.o [1]
DotBufFillToPrn         0x080099f9   0x21e  Code  Gb  DotFill.o [1]
DotFillToBuf            0x08009e7d   0x45c  Code  Gb  DotFill.o [1]
DtorRecArray            0x20000c10     0xc  Data  Lc  cppinit.o [3]
EP1_IN_Callback         0x0800fc15    0x24  Code  Gb  usb_endp.o [1]
EP2_OUT_Callback        0x0800fbc1    0x54  Code  Gb  usb_endp.o [1]
EP3_OUT_Callback        0x0800fbbd     0x2  Code  Gb  usb_endp.o [1]
EPindex                 0x2000d5b3     0x1  Data  Gb  usb_init.o [1]
EXTI0_IRQHandler        0x0800cc11     0x2  Code  Gb  stm32f10x_it.o [1]
EXTI15_10_IRQHandler    0x0800ce2d     0x2  Code  Gb  stm32f10x_it.o [1]
EXTI1_IRQHandler        0x0800cc13     0x2  Code  Gb  stm32f10x_it.o [1]
EXTI2_IRQHandler        0x0800cc15     0x2  Code  Gb  stm32f10x_it.o [1]
EXTI3_IRQHandler        0x0800cc17     0x2  Code  Gb  stm32f10x_it.o [1]
EXTI4_IRQHandler        0x0800cc19     0x2  Code  Gb  stm32f10x_it.o [1]
EXTI9_5_IRQHandler      0x0800cca3     0x2  Code  Gb  stm32f10x_it.o [1]
FLASH_IRQHandler        0x0800cc0d     0x2  Code  Gb  stm32f10x_it.o [1]
FLASH_PrefetchBufferCmd
                        0x08010b31    0x20  Code  Gb  stm32f10x_flash.o [1]
FLASH_SetLatency        0x08010b11    0x20  Code  Gb  stm32f10x_flash.o [1]
FSMC_IRQHandler         0x0800ce3d     0x2  Code  Gb  stm32f10x_it.o [1]
FatFs                   0x2000d514     0x4  Data  Lc  ff.o [1]
FontBold                0x08008fb9   0x27c  Code  Lc  font.o [1]
FontCircumvolve         0x0800947f   0x202  Code  Gb  font.o [1]
FontEnlarge             0x08009235    0xc0  Code  Gb  font.o [1]
FontList                0x2000d7e4    0x20  Data  Gb  res_spi_new.o [1]
FontRevert              0x080093d7    0xa8  Code  Lc  font.o [1]
FontRevertProc          0x080093b3    0x24  Code  Lc  font.o [1]
FontSmoothing           0x080092f5     0x2  Code  Lc  font.o [1]
FontUnderline           0x080092f7    0xbc  Code  Gb  font.o [1]
Fsid                    0x2000d596     0x2  Data  Lc  ff.o [1]
GPIO_AllAinConfig       0x0800d9ad    0x50  Code  Lc  main.o [1]
GPIO_Init               0x0800ed55    0xcc  Code  Gb  stm32f10x_gpio.o [1]
GPIO_PinRemapConfig     0x0800ee49    0x7c  Code  Gb  stm32f10x_gpio.o [1]
GPIO_ReadInputDataBit   0x0800ee21    0x1a  Code  Gb  stm32f10x_gpio.o [1]
GPIO_ResetBits          0x0800ee41     0x6  Code  Gb  stm32f10x_gpio.o [1]
GPIO_SetBits            0x0800ee3b     0x6  Code  Gb  stm32f10x_gpio.o [1]
GetChineseFont          0x08009855   0x196  Code  Gb  font.o [1]
GetEPRxAddr             0x0800de61    0x18  Code  Gb  usb_regs.o [1]
GetEPRxCount            0x0800ded7    0x18  Code  Gb  usb_regs.o [1]
GetEPTxAddr             0x0800de49    0x18  Code  Gb  usb_regs.o [1]
GetEnglishFont          0x08009681   0x1d4  Code  Gb  font.o [1]
Get_Max_Lun             0x0800ba05    0x1c  Code  Lc  usb_prop.o [1]
Get_Port_status         0x0800ba21    0x3c  Code  Lc  usb_prop.o [1]
Getchar                 0x0800e1c1   0x12c  Code  Gb  uart.o [1]
HARDFAULT_ISR_HANDLE_d  0x08011399          Code  Gb  hardfault_isr_handle_a.o [1]
HEAP$$Base              0x20000810           --   Gb  - Linker created -
HEAP$$Limit             0x20000c10           --   Gb  - Linker created -
HSEStartUpStatus        0x2000d5ac     0x1  Data  Gb  main.o [1]
HardFaultException      0x0800cbe9     0x8  Code  Gb  stm32f10x_it.o [1]
I2C1_ER_IRQHandler      0x0800ccdd     0x2  Code  Gb  stm32f10x_it.o [1]
I2C1_EV_IRQHandler      0x0800ccdb     0x2  Code  Gb  stm32f10x_it.o [1]
I2C2_ER_IRQHandler      0x0800cce1     0x2  Code  Gb  stm32f10x_it.o [1]
I2C2_EV_IRQHandler      0x0800ccdf     0x2  Code  Gb  stm32f10x_it.o [1]
Idx                     0x2000d52c     0x4  Data  Gb  memory.o [1]
In0_Process             0x08008e5d    0x68  Code  Gb  usb_core.o [1]
Jfree                   0x08010e9d    0x26  Code  Gb  JMemory.o [1]
KeyScanInit             0x080100cb    0x2c  Code  Gb  KeyScan.o [1]
KeyScanProc             0x08010051    0x7a  Code  Gb  KeyScan.o [1]
MAL_GetStatus           0x0800f5c5    0x58  Code  Gb  mass_mal.o [1]
MAL_Read                0x0800f555    0x66  Code  Gb  mass_mal.o [1]
MAL_Write               0x0800f4fd    0x58  Code  Gb  mass_mal.o [1]
MASS_ConfigDescriptor   0x08011048    0x20  Data  Gb  usb_desc.o [1]
MASS_DeviceDescriptor   0x08011320    0x14  Data  Gb  usb_desc.o [1]
Mass_Block_Count        0x2000d4f0     0x8  Data  Gb  mass_mal.o [1]
Mass_Block_Size         0x2000d4e8     0x8  Data  Gb  mass_mal.o [1]
Mass_Memory_Size        0x2000d4e0     0x8  Data  Gb  mass_mal.o [1]
Mass_Storage_In         0x0800beb9    0x62  Code  Gb  usb_bot.o [1]
Mass_Storage_Out        0x0800bf1b    0x7e  Code  Gb  usb_bot.o [1]
MaxHeatDotsAdj          0x08004e3d    0x22  Code  Gb  TP.o [1]
Max_Lun                 0x2000d574     0x4  Data  Gb  usb_prop.o [1]
MemManageException      0x0800cbf1     0x2  Code  Gb  stm32f10x_it.o [1]
Mode_Sense10_data       0x2000d8d8     0x8  Data  Gb  scsi_data.o [1]
Mode_Sense6_data        0x2000d8e0     0x4  Data  Gb  scsi_data.o [1]
NMIException            0x0800cb01     0x2  Code  Gb  stm32f10x_it.o [1]
NOP_Process             0x08008fb5     0x2  Code  Gb  usb_core.o [1]
NVIC_DisableIRQ         0x0800da01    0x14  Code  Gb  main.o [1]
NVIC_EnableIRQ          0x0800da15    0x20  Code  Gb  main.o [1]
NVIC_GenerateSystemReset
                        0x0800ef99     0xc  Code  Gb  stm32f10x_nvic.o [1]
NVIC_Init               0x0800eed5    0xa0  Code  Gb  stm32f10x_nvic.o [1]
NVIC_PriorityGroupConfig
                        0x0800eec5     0xa  Code  Gb  stm32f10x_nvic.o [1]
NVIC_SETFAULTMASK       0x0800ef7d     0x8  Code  Gb  stm32f10x_nvic.o [1]
NVIC_SetVectorTable     0x0800ef85    0x10  Code  Gb  stm32f10x_nvic.o [1]
NVIC_SystemHandlerPriorityConfig
                        0x0800efa5    0x72  Code  Gb  stm32f10x_nvic.o [1]
NoData_Setup0           0x080089c9   0x152  Code  Lc  usb_core.o [1]
Out0_Process            0x08008ecd    0x4c  Code  Gb  usb_core.o [1]
PMAToUserBufferCopy     0x08010a4f    0x22  Code  Gb  usb_mem.o [1]
PVD_IRQHandler          0x0800cc07     0x2  Code  Gb  stm32f10x_it.o [1]
Page00_Inquiry_Data     0x2000d4f8     0x8  Data  Gb  scsi_data.o [1]
PaperStartSns           0x0800b275    0xf0  Code  Gb  PaperDetect.o [1]
PendSVC                 0x0800cbfb     0x2  Code  Gb  stm32f10x_it.o [1]
Post0_Process           0x08008f19    0x4c  Code  Gb  usb_core.o [1]
PrintBufPushBytes       0x0800e2ed    0x18  Code  Gb  uart.o [1]
PrintBufPushLine        0x0800e305    0x18  Code  Gb  uart.o [1]
PrintBufToZero          0x0800e31d    0x56  Code  Gb  uart.o [1]
PrintCurrentBuffer      0x08009d7d    0x80  Code  Gb  DotFill.o [1]
PrintCurrentBuffer_0    0x08009dfd    0x80  Code  Gb  DotFill.o [1]
Printer_ConfigDescriptor
                        0x08011068    0x20  Data  Gb  usb_desc.o [1]
Printer_DeviceDescriptor
                        0x08011334    0x14  Data  Gb  usb_desc.o [1]
RCC_ADCCLKConfig        0x0800d059    0x14  Code  Gb  stm32f10x_rcc.o [1]
RCC_AHBPeriphClockCmd   0x0800d151    0x24  Code  Gb  stm32f10x_rcc.o [1]
RCC_APB1PeriphClockCmd  0x0800d199    0x24  Code  Gb  stm32f10x_rcc.o [1]
RCC_APB2PeriphClockCmd  0x0800d175    0x24  Code  Gb  stm32f10x_rcc.o [1]
RCC_Configuration       0x0800d901    0x88  Code  Gb  main.o [1]
RCC_DeInit              0x0800cee5    0x5c  Code  Gb  stm32f10x_rcc.o [1]
RCC_GetClocksFreq       0x0800d06d    0xe0  Code  Gb  stm32f10x_rcc.o [1]
RCC_GetFlagStatus       0x0800d1bd    0x44  Code  Gb  stm32f10x_rcc.o [1]
RCC_GetSYSCLKSource     0x0800d005     0xa  Code  Gb  stm32f10x_rcc.o [1]
RCC_HCLKConfig          0x0800d00f    0x14  Code  Gb  stm32f10x_rcc.o [1]
RCC_HSEConfig           0x0800cf41    0x54  Code  Gb  stm32f10x_rcc.o [1]
RCC_IRQHandler          0x0800cc0f     0x2  Code  Gb  stm32f10x_it.o [1]
RCC_PCLK1Config         0x0800d023    0x14  Code  Gb  stm32f10x_rcc.o [1]
RCC_PCLK2Config         0x0800d037    0x16  Code  Gb  stm32f10x_rcc.o [1]
RCC_PLLCmd              0x0800cfe5     0xc  Code  Gb  stm32f10x_rcc.o [1]
RCC_PLLConfig           0x0800cfcd    0x16  Code  Gb  stm32f10x_rcc.o [1]
RCC_SYSCLKConfig        0x0800cff1    0x14  Code  Gb  stm32f10x_rcc.o [1]
RCC_USBCLKConfig        0x0800d04d     0xc  Code  Gb  stm32f10x_rcc.o [1]
RCC_WaitForHSEStartUp   0x0800cf95    0x38  Code  Gb  stm32f10x_rcc.o [1]
RTCAlarm_IRQHandler     0x0800ce2f     0x2  Code  Gb  stm32f10x_it.o [1]
RTC_IRQHandler          0x0800cc0b     0x2  Code  Gb  stm32f10x_it.o [1]
ReadCapacity10_Data     0x2000d500     0x8  Data  Gb  scsi_data.o [1]
ReadFormatCapacity_Data
                        0x2000d8cc     0xc  Data  Gb  scsi_data.o [1]
ReadTerminalPara        0x0800fa51    0x98  Code  Gb  Terminal_Para_m.o [1]
Read_Memory             0x0800df19   0x108  Code  Gb  memory.o [1]
Region$$Table$$Base     0x08010ffc           --   Gb  - Linker created -
Region$$Table$$Limit    0x08011028           --   Gb  - Linker created -
SCSI_Address_Management
                        0x0800be2f    0x7e  Code  Gb  usb_scsi.o [1]
SCSI_BlkLen             0x2000d55c     0x4  Data  Gb  usb_bot.o [1]
SCSI_Format_Cmd         0x0800bdc5    0x2a  Code  Gb  usb_scsi.o [1]
SCSI_Inquiry_Cmd        0x0800ba79    0x48  Code  Gb  usb_scsi.o [1]
SCSI_Invalid_Cmd        0x0800bdef    0x40  Code  Gb  usb_scsi.o [1]
SCSI_LBA                0x2000d558     0x4  Data  Gb  usb_bot.o [1]
SCSI_ModeSense10_Cmd    0x0800bc2d    0x10  Code  Gb  usb_scsi.o [1]
SCSI_ModeSense6_Cmd     0x0800bc1d    0x10  Code  Gb  usb_scsi.o [1]
SCSI_Read10_Cmd         0x0800bc75    0x7c  Code  Gb  usb_scsi.o [1]
SCSI_ReadCapacity10_Cmd
                        0x0800bb69    0xb4  Code  Gb  usb_scsi.o [1]
SCSI_ReadFormatCapacity_Cmd
                        0x0800bac1    0xa8  Code  Gb  usb_scsi.o [1]
SCSI_RequestSense_Cmd   0x0800bc3d    0x1e  Code  Gb  usb_scsi.o [1]
SCSI_Start_Stop_Unit_Cmd
                        0x0800bc69     0xc  Code  Gb  usb_scsi.o [1]
SCSI_TestUnitReady_Cmd  0x0800bd93    0x32  Code  Gb  usb_scsi.o [1]
SCSI_Verify10_Cmd       0x0800bd59    0x3a  Code  Gb  usb_scsi.o [1]
SCSI_Write10_Cmd        0x0800bcf1    0x64  Code  Gb  usb_scsi.o [1]
SDIO_IRQHandler         0x0800ce3f     0x2  Code  Gb  stm32f10x_it.o [1]
SPI1_IRQHandler         0x0800cce3     0x2  Code  Gb  stm32f10x_it.o [1]
SPI2_IRQHandler         0x0800cce5     0x2  Code  Gb  stm32f10x_it.o [1]
SPI3_IRQHandler         0x0800ce43     0x2  Code  Gb  stm32f10x_it.o [1]
SPI_Cmd                 0x08010663    0x1a  Code  Gb  stm32f10x_spi.o [1]
SPI_I2S_GetFlagStatus   0x08010685    0x1a  Code  Gb  stm32f10x_spi.o [1]
SPI_I2S_ReceiveData     0x08010681     0x4  Code  Gb  stm32f10x_spi.o [1]
SPI_I2S_SendData        0x0801067d     0x4  Code  Gb  stm32f10x_spi.o [1]
SPI_Init                0x08010625    0x3e  Code  Gb  stm32f10x_spi.o [1]
SVCHandler              0x0800cbf9     0x2  Code  Gb  stm32f10x_it.o [1]
SaveRState              0x2000d59c     0x2  Data  Gb  usb_int.o [1]
SaveTState              0x2000d59e     0x2  Data  Gb  usb_int.o [1]
SaveTerminalPara        0x0800fae9    0x1a  Code  Gb  Terminal_Para_m.o [1]
Scsi_Sense_Data         0x2000d898    0x14  Data  Gb  scsi_data.o [1]
SetBTABLE               0x0800dcb9     0xe  Code  Gb  usb_regs.o [1]
SetDesity               0x08005571     0xa  Code  Gb  TP.o [1]
SetDeviceAddress        0x08008f65    0x50  Code  Gb  usb_core.o [1]
SetEPRxAddr             0x0800de2b    0x1e  Code  Gb  usb_regs.o [1]
SetEPRxCount            0x0800de93    0x44  Code  Gb  usb_regs.o [1]
SetEPRxStatus           0x0800dd21    0x38  Code  Gb  usb_regs.o [1]
SetEPRxValid            0x0800dd59    0x2c  Code  Gb  usb_regs.o [1]
SetEPTxAddr             0x0800de0d    0x1e  Code  Gb  usb_regs.o [1]
SetEPTxCount            0x0800de79    0x1a  Code  Gb  usb_regs.o [1]
SetEPTxStatus           0x0800dce7    0x3a  Code  Gb  usb_regs.o [1]
SetEPType               0x0800dcc7    0x20  Code  Gb  usb_regs.o [1]
Set_CSW                 0x0800c279    0x38  Code  Gb  usb_bot.o [1]
Set_Scsi_Sense_Data     0x0800bc5b     0xa  Code  Gb  usb_scsi.o [1]
Setup0_Process          0x08008dc9    0x8c  Code  Gb  usb_core.o [1]
Standard_ClearFeature   0x080085fd   0x158  Code  Gb  usb_core.o [1]
Standard_GetConfiguration
                        0x080083d9    0x2a  Code  Gb  usb_core.o [1]
Standard_GetDescriptorData
                        0x08008837    0x24  Code  Gb  usb_core.o [1]
Standard_GetInterface   0x08008451    0x2a  Code  Gb  usb_core.o [1]
Standard_GetStatus      0x080084fd   0x100  Code  Gb  usb_core.o [1]
Standard_Inquiry_Data   0x2000d778    0x24  Data  Gb  scsi_data.o [1]
Standard_Inquiry_Data2  0x2000d79c    0x24  Data  Gb  scsi_data.o [1]
Standard_SetConfiguration
                        0x08008403    0x4e  Code  Gb  usb_core.o [1]
Standard_SetDeviceFeature
                        0x08008813    0x24  Code  Gb  usb_core.o [1]
Standard_SetEndPointFeature
                        0x08008759    0xba  Code  Gb  usb_core.o [1]
Standard_SetInterface   0x0800847b    0x82  Code  Gb  usb_core.o [1]
Status                  0x2000d51c     0x4  Data  Gb  mass_mal.o [1]
StatusInfo              0x2000d560     0x4  Data  Gb  usb_core.o [1]
String_Descriptor       0x2000d804    0x20  Data  Gb  usb_prop.o [1]
SysTickHandler          0x0800cbfd     0x8  Code  Gb  stm32f10x_it.o [1]
SysTick_CLKSourceConfig
                        0x08010415    0x20  Code  Gb  stm32f10x_systick.o [1]
SysTick_CounterCmd      0x08010441    0x30  Code  Gb  stm32f10x_systick.o [1]
SysTick_IRQ_Handle      0x0800b591    0x74  Code  Gb  PaperDetect.o [1]
SysTick_ITConfig        0x08010471    0x22  Code  Gb  stm32f10x_systick.o [1]
SysTick_SetReload       0x08010435     0xc  Code  Gb  stm32f10x_systick.o [1]
TAMPER_IRQHandler       0x0800cc09     0x2  Code  Gb  stm32f10x_it.o [1]
TIM1_BRK_IRQHandler     0x0800cca5     0x2  Code  Gb  stm32f10x_it.o [1]
TIM1_CC_IRQHandler      0x0800ccab     0x2  Code  Gb  stm32f10x_it.o [1]
TIM1_TRG_COM_IRQHandler
                        0x0800cca9     0x2  Code  Gb  stm32f10x_it.o [1]
TIM1_UP_IRQHandler      0x0800cca7     0x2  Code  Gb  stm32f10x_it.o [1]
TIM2_IRQHandler         0x0800ccad     0x8  Code  Gb  stm32f10x_it.o [1]
TIM2_UpdateISRHandler   0x0800f45f    0x9a  Code  Gb  TimeBase.o [1]
TIM3_IRQHandler         0x0800ccb5    0x24  Code  Gb  stm32f10x_it.o [1]
TIM3_IRQ_Handle         0x08005525    0x1c  Code  Gb  TP.o [1]
TIM4_IRQHandler         0x0800ccd9     0x2  Code  Gb  stm32f10x_it.o [1]
TIM5_IRQHandler         0x0800ce41     0x2  Code  Gb  stm32f10x_it.o [1]
TIM6_IRQHandler         0x0800ceb3     0x2  Code  Gb  stm32f10x_it.o [1]
TIM7_IRQHandler         0x0800ceb5     0x2  Code  Gb  stm32f10x_it.o [1]
TIM8_BRK_IRQHandler     0x0800ce33     0x2  Code  Gb  stm32f10x_it.o [1]
TIM8_CC_IRQHandler      0x0800ce39     0x2  Code  Gb  stm32f10x_it.o [1]
TIM8_TRG_COM_IRQHandler
                        0x0800ce37     0x2  Code  Gb  stm32f10x_it.o [1]
TIM8_UP_IRQHandler      0x0800ce35     0x2  Code  Gb  stm32f10x_it.o [1]
TIM_ARRPreloadConfig    0x0800ecff    0x1c  Code  Gb  stm32f10x_tim.o [1]
TIM_ClearITPendingBit   0x0800ed4d     0x8  Code  Gb  stm32f10x_tim.o [1]
TIM_Cmd                 0x0800eccb    0x1c  Code  Gb  stm32f10x_tim.o [1]
TIM_GetITStatus         0x0800ed1b    0x32  Code  Gb  stm32f10x_tim.o [1]
TIM_ITConfig            0x0800ece7    0x18  Code  Gb  stm32f10x_tim.o [1]
TIM_OC1Init             0x0800ec13    0x76  Code  Gb  stm32f10x_tim.o [1]
TIM_OCStructInit        0x0800eca9    0x22  Code  Gb  stm32f10x_tim.o [1]
TIM_TimeBaseInit        0x0800ebdd    0x36  Code  Gb  stm32f10x_tim.o [1]
TIM_TimeBaseStructInit  0x0800ec91    0x18  Code  Gb  stm32f10x_tim.o [1]
TPAdjustStepTime        0x08004c4d   0x110  Code  Lc  TP.o [1]
TPBMSNSDetect           0x0800b369   0x148  Code  Gb  PaperDetect.o [1]
TPCheckBuf              0x0800501b   0x17e  Code  Lc  TP.o [1]
TPDataDMAShiftToPrn     0x08005001    0x1a  Code  Lc  TP.o [1]
TPDataShiftCntProc      0x08004e61   0x184  Code  Lc  TP.o [1]
TPDataShiftOut          0x08004fe5    0x1c  Code  Lc  TP.o [1]
TPFeedLine              0x080056c3    0x18  Code  Gb  TP.o [1]
TPFeedStart             0x080056dd    0x18  Code  Gb  TP.o [1]
TPFeedStep              0x08004da5    0x48  Code  Lc  TP.o [1]
TPFeedStop              0x080056f5     0xc  Code  Gb  TP.o [1]
TPForwardStep           0x08004a2d   0x180  Code  Lc  TP.o [1]
TPGetStepTime           0x08004d5d    0x30  Code  Lc  TP.o [1]
TPHTemperature          0x0800f8f5    0x5c  Code  Gb  ThermalDetect.o [1]
TPHeatDotsAdj           0x08004c09    0x44  Code  Lc  TP.o [1]
TPHeatPreLineAdj        0x08004c05     0x2  Code  Lc  TP.o [1]
TPHeatThermalAdj        0x08004bb9    0x4c  Code  Lc  TP.o [1]
TPHeatVoltageAdj        0x08004bb5     0x2  Code  Lc  TP.o [1]
TPISRProc               0x080051a9   0x37c  Code  Gb  TP.o [1]
TPInit                  0x080048f5   0x138  Code  Gb  TP.o [1]
TPIntSetIdle            0x08004e0f    0x28  Code  Lc  TP.o [1]
TPIntSetPreIdle         0x08004ded    0x22  Code  Lc  TP.o [1]
TPPaperSNSDetect        0x0800b4b1    0xb4  Code  Gb  PaperDetect.o [1]
TPPaperSNSInit          0x0800b0f5   0x180  Code  Gb  PaperDetect.o [1]
TPPrintAsciiLine        0x08005701     0x8  Code  Gb  TP.o [1]
TPPrintCmdToBuf         0x08005635    0x80  Code  Lc  TP.o [1]
TPPrintLine             0x080056b5     0xe  Code  Gb  TP.o [1]
TPPrintTestPage         0x08005709   0x26c  Code  Gb  TP.o [1]
TPPrinterMark           0x0800b565    0x12  Code  Gb  PaperDetect.o [1]
TPPrinterReady          0x0800b577    0x14  Code  Gb  PaperDetect.o [1]
TPSetSpeed              0x08005541    0x30  Code  Gb  TP.o [1]
TPSetTimeCnt            0x08004d91    0x10  Code  Lc  TP.o [1]
TPStart                 0x080055c1    0x74  Code  Lc  TP.o [1]
TP_dot                  0x2000c4f4   0x310  Data  Lc  TP.o [1]
TimeBase_Init           0x0800f3eb    0x74  Code  Gb  TimeBase.o [1]
TpAccelerationSteps     0x0800f020   0x150  Data  Lc  TP.o [1]
TranRtoDegree           0x0800f871    0x84  Code  Gb  ThermalDetect.o [1]
TranVtoR                0x0800f845    0x2a  Code  Gb  ThermalDetect.o [1]
TransferState           0x2000d5ad     0x1  Data  Gb  memory.o [1]
Transfer_Data_Request   0x0800c245    0x32  Code  Gb  usb_bot.o [1]
UART4_IRQHandler        0x0800ce45    0x6c  Code  Gb  stm32f10x_it.o [1]
UART5_IRQHandler        0x0800ceb1     0x2  Code  Gb  stm32f10x_it.o [1]
USART1_IRQHandler       0x0800cce9    0x6c  Code  Gb  stm32f10x_it.o [1]
USART2_IRQHandler       0x0800cd55    0x6c  Code  Gb  stm32f10x_it.o [1]
USART3_IRQHandler       0x0800cdc1    0x6c  Code  Gb  stm32f10x_it.o [1]
USART_Cmd               0x0800e7a9    0x1a  Code  Gb  stm32f10x_usart.o [1]
USART_DMACmd            0x0800e813    0x18  Code  Gb  stm32f10x_usart.o [1]
USART_GetFlagStatus     0x0800e83b    0x1a  Code  Gb  stm32f10x_usart.o [1]
USART_GetITStatus       0x0800e855    0x64  Code  Gb  stm32f10x_usart.o [1]
USART_ITConfig          0x0800e7c3    0x50  Code  Gb  stm32f10x_usart.o [1]
USART_Init              0x0800e70d    0x9c  Code  Gb  stm32f10x_usart.o [1]
USART_ReceiveData       0x0800e833     0x8  Code  Gb  stm32f10x_usart.o [1]
USART_SendData          0x0800e82b     0x8  Code  Gb  stm32f10x_usart.o [1]
USBWakeUp_IRQHandler    0x0800ce31     0x2  Code  Gb  stm32f10x_it.o [1]
USB_APP_ClearFeature    0x0800b7cd    0x1c  Code  Gb  usb_prop.o [1]
USB_APP_Data_Setup      0x0800b7f9    0xc4  Code  Gb  usb_prop.o [1]
USB_APP_GetConfigDescriptor
                        0x0800b991    0x2c  Code  Gb  usb_prop.o [1]
USB_APP_GetDeviceDescriptor
                        0x0800b961    0x2c  Code  Gb  usb_prop.o [1]
USB_APP_GetStringDescriptor
                        0x0800b9c5    0x28  Code  Gb  usb_prop.o [1]
USB_APP_Get_Interface_Setting
                        0x0800b9ed    0x18  Code  Gb  usb_prop.o [1]
USB_APP_NoData_Setup    0x0800b8bd    0x98  Code  Gb  usb_prop.o [1]
USB_APP_Reset           0x0800b64d   0x148  Code  Gb  usb_prop.o [1]
USB_APP_SetConfiguration
                        0x0800b79d    0x30  Code  Gb  usb_prop.o [1]
USB_APP_SetDeviceAddress
                        0x0800b7e9     0x8  Code  Gb  usb_prop.o [1]
USB_APP_Status_In       0x0800b7f5     0x2  Code  Gb  usb_prop.o [1]
USB_APP_Status_Out      0x0800b7f7     0x2  Code  Gb  usb_prop.o [1]
USB_APP_StringLangID    0x0801168c     0x4  Data  Gb  usb_desc.o [1]
USB_APP_StringProduct   0x08011088    0x20  Data  Gb  usb_desc.o [1]
USB_APP_StringSerial    0x2000d844    0x1c  Data  Gb  usb_desc.o [1]
USB_APP_StringVendor    0x08010f18    0x28  Data  Gb  usb_desc.o [1]
USB_APP_init            0x0800b60d    0x40  Code  Gb  usb_prop.o [1]
USB_HP_CAN_TX_IRQHandler
                        0x0800cc8f     0x8  Code  Gb  stm32f10x_it.o [1]
USB_Init                0x08010c1d    0x40  Code  Gb  usb_init.o [1]
USB_Istr                0x0801025d    0x9c  Code  Gb  usb_istr.o [1]
USB_LP_CAN_RX0_IRQHandler
                        0x0800cc97     0x8  Code  Gb  stm32f10x_it.o [1]
USB_PowerOn             0x08010cd9    0x34  Code  Gb  usb_pwr.o [1]
USB_SIL_Read            0x08010943    0x2c  Code  Gb  usb_sil.o [1]
USB_SIL_Write           0x08010915    0x2e  Code  Gb  usb_sil.o [1]
Unconfigure_All         0x0800d98d    0x20  Code  Lc  main.o [1]
UsageFaultException     0x0800cbf5     0x2  Code  Gb  stm32f10x_it.o [1]
UserToPMABufferCopy     0x08010a21    0x2e  Code  Gb  usb_mem.o [1]
User_Standard_Requests  0x2000d7c0    0x24  Data  Gb  usb_prop.o [1]
WWDG_IRQHandler         0x0800cc05     0x2  Code  Gb  stm32f10x_it.o [1]
Wake_up                 0x0800557d    0x44  Code  Gb  TP.o [1]
Write_Memory            0x0800e021   0x120  Code  Gb  memory.o [1]
_EncodingSb_Mbtowc      0x080108dd    0x38  Code  Gb  xencoding_sb.o [3]
_EncodingSb_Wctomb      0x080108b9    0x1c  Code  Gb  xencoding_sb.o [3]
_Files                  0x2000d824    0x20  Data  Gb  xfiles.o [3]
_GenldDefault           0x08006739   0x258  Code  Lc  xprintffull.o [3]
_IsdstStr               0x2000d5dc     0x4  Data  Gb  setlocale.o [3]
_LdtobDefault           0x08006315   0x404  Code  Lc  xprintffull.o [3]
_LitobDefault           0x080061fd   0x110  Code  Lc  xprintffull.o [3]
_LocaleC_lconv          0x08010ac8    0x48  Data  Gb  xlocale_c.o [3]
_LocaleEncoding         0x08011371    0x10  Code  Gb  setlocale.o [3]
_LocaleReturnString     0x2000d5ec    0x50  Data  Lc  setlocale.o [3]
_Locale_LconvArray      0x2000d5e8     0x4  Data  Gb  setlocale.o [3]
_Locale_Profile         0x2000d5b8    0x1c  Data  Gb  setlocale.o [3]
_Locale_lconv           0x2000d640    0x48  Data  Gb  localeconv.o [3]
_Mbtowc                 0x080110c9    0x20  Code  Gb  xmbtowc.o [3]
_Printf                 0x08005975   0x5a8  Code  Gb  xprintffull.o [3]
_Prout                  0x0801126b    0x16  Code  Gb  xprout.o [3]
_PutcharsDefault        0x08006991    0x32  Code  Lc  xprintffull.o [3]
_PutstrDefault          0x08005f25   0x2cc  Code  Lc  xprintffull.o [3]
_SNProut                0x08011145    0x1a  Code  Gb  xsnprout.o [3]
_TzoneStr               0x2000d5d4     0x4  Data  Gb  setlocale.o [3]
_Wctomb                 0x0801115f    0x1a  Code  Gb  xwctomb.o [3]
__BASEPRICONFIG         0x0801060f          Code  Gb  cortexm3_macro.o [1]
__DMB                   0x080105c1          Code  Gb  cortexm3_macro.o [1]
__DSB                   0x080105bb          Code  Gb  cortexm3_macro.o [1]
__GetBASEPRI            0x08010615          Code  Gb  cortexm3_macro.o [1]
__ISB                   0x080105b5          Code  Gb  cortexm3_macro.o [1]
__MRS_CONTROL           0x080105cb          Code  Gb  cortexm3_macro.o [1]
__MRS_MSP               0x080105e7          Code  Gb  cortexm3_macro.o [1]
__MRS_PSP               0x080105db          Code  Gb  cortexm3_macro.o [1]
__MSR_CONTROL           0x080105d1          Code  Gb  cortexm3_macro.o [1]
__MSR_MSP               0x080105ed          Code  Gb  cortexm3_macro.o [1]
__MSR_PSP               0x080105e1          Code  Gb  cortexm3_macro.o [1]
__READ_FAULTMASK        0x08010609          Code  Gb  cortexm3_macro.o [1]
__READ_PRIMASK          0x080105fb          Code  Gb  cortexm3_macro.o [1]
__RESETFAULTMASK        0x08010601          Code  Gb  cortexm3_macro.o [1]
__RESETPRIMASK          0x080105f3          Code  Gb  cortexm3_macro.o [1]
__REV_HalfWord          0x0801061b          Code  Gb  cortexm3_macro.o [1]
__REV_Word              0x0801061f          Code  Gb  cortexm3_macro.o [1]
__SETFAULTMASK          0x08010605          Code  Gb  cortexm3_macro.o [1]
__SETPRIMASK            0x080105f7          Code  Gb  cortexm3_macro.o [1]
__SEV                   0x080105b1          Code  Gb  cortexm3_macro.o [1]
__SVC                   0x080105c7          Code  Gb  cortexm3_macro.o [1]
__WFE                   0x080105ad          Code  Gb  cortexm3_macro.o [1]
__WFI                   0x080105a9          Code  Gb  cortexm3_macro.o [1]
__aeabi_assert          0x08010b9b    0x42  Code  Gb  xassert.o [3]
__aeabi_cdcmple         0x08010de1          Code  Gb  DblCmpLe.o [4]
__aeabi_cdrcmple        0x08010e11          Code  Gb  DblCmpGe.o [4]
__aeabi_d2iz            0x080109c9          Code  Gb  DblToI32.o [4]
__aeabi_d2uiz           0x080109f5          Code  Gb  DblToI32.o [4]
__aeabi_dadd            0x0800fd25          Code  Gb  DblAdd.o [4]
__aeabi_ddiv            0x0800d4f1          Code  Gb  DblDiv.o [4]
__aeabi_dmul            0x0800e8b9          Code  Gb  DblMul.o [4]
__aeabi_dsub            0x0800ea5d          Code  Gb  DblSub.o [4]
__aeabi_i2d             0x08010e41          Code  Gb  I32ToDbl.o [4]
__aeabi_ldiv0           0x08011691          Code  Gb  I64DivZer.o [4]
__aeabi_ldivmod         0x0800f2a1          Code  Gb  I64DivMod.o [4]
__aeabi_memcpy          0x080106a1          Code  Gb  ABImemcpy.o [4]
__aeabi_memcpy4         0x080106bb          Code  Gb  ABImemcpy.o [4]
__aeabi_memcpy8         0x080106bb          Code  Gb  ABImemcpy.o [4]
__aeabi_memset          0x080107ed          Code  Gb  ABImemset.o [4]
__aeabi_ui2d            0x08010e55          Code  Gb  I32ToDbl.o [4]
__aeabi_uldivmod        0x0800f2b5          Code  Gb  I64DivMod.o [4]
__call_dtors            0x0801073d     0x4  Code  Gb  cppinit.o [3]
__cstart_call_dtors     0x0801147f          Code  Gb  cexit.o [4]
__cxa_atexit            0x08010711    0x2c  Code  Gb  cppinit.o [3]
__cxa_finalize          0x08010741    0x3c  Code  Gb  cppinit.o [3]
__data_Aldata           0x2000d508     0x8  Data  Gb  xxmemxmalloc.o [3]
__data_GetMemChunk      0x08010f69    0x28  Code  Gb  xgetmemchunk.o [3]
__dwrite                0x08011109    0x1e  Code  Gb  dwrite.o [5]
__exit                  0x08011349    0x14  Code  Gb  exit.o [5]
__iar_Dnorm             0x0800ff9d    0xb4  Code  Gb  xdnorm.o [3]
__iar_Dscale            0x0800f735   0x110  Code  Gb  xdscale.o [3]
__iar_EmptyStepPoint    0x08010b99     0x2  Code  Gb  xassert.o [3]
__iar_Locksyslock       0x080103b1    0x4c  Code  Gb  xsyslock.o [3]
__iar_Mbcurmax          0x08011605     0xa  Code  Gb  xmbcurmax.o [3]
__iar_Memchr            0x08010971          Code  Gb  memchr.o [4]
__iar_Memset            0x080107ed          Code  Gb  ABImemset.o [4]
__iar_Memset_word       0x080107f5          Code  Gb  ABImemset.o [4]
__iar_Mtxdst            0x08010db7     0x6  Code  Gb  MtxWrapper.o [3]
__iar_Mtxinit           0x08010db1     0x6  Code  Gb  MtxWrapper.o [3]
__iar_Mtxlock           0x08010dbd     0x4  Code  Gb  MtxWrapper.o [3]
__iar_Mtxunlock         0x08010dcb     0x6  Code  Gb  MtxWrapper.o [3]
__iar_ReportAssert      0x08010545    0x64  Code  Gb  xreportassert.o [3]
__iar_Stderr            0x2000d708    0x40  Data  Gb  xfiles.o [3]
__iar_Stdin             0x2000d688    0x40  Data  Gb  xfiles.o [3]
__iar_Stdout            0x2000d6c8    0x40  Data  Gb  xfiles.o [3]
__iar_Strchr            0x08011255          Code  Gb  strchr.o [4]
__iar_Tls_setup__IsdstStr
                        0x2000d5e0     0x4  Data  Gb  setlocale.o [3]
__iar_Tls_setup__Locale_Profile
                        0x2000d5e4     0x4  Data  Gb  setlocale.o [3]
__iar_Tls_setup__Locale_lconv
                        0x2000d63c     0x4  Data  Gb  localeconv.o [3]
__iar_Tls_setup__TzoneStr
                        0x2000d5d8     0x4  Data  Gb  setlocale.o [3]
__iar_Unlocksyslock     0x080103fd    0x14  Code  Gb  xsyslock.o [3]
__iar_d2uiz             0x080109ff          Code  Gb  DblToI32.o [4]
__iar_dadd              0x0800fd37          Code  Gb  DblAdd.o [4]
__iar_data_init2        0x08011129    0x1c  Code  Gb  data_init2.o [4]
__iar_dsub              0x0800ea6f          Code  Gb  DblSub.o [4]
__iar_dsubStart         0x0800ea81          Code  Gb  DblSub.o [4]
__iar_packbits_init2    0x080102f9    0x8e  Code  Gb  packbits_init2.o [4]
__iar_program_start     0x0801123d          Code  Gb  cmain.o [4]
__iar_sh_stdout         0x08010a89    0x3c  Code  Gb  iarwstd.o [5]
__iar_sh_stdout_close   0x08010a75    0x14  Code  Gb  iarwstd.o [5]
__iar_sh_stdout_handle  0x2000d590     0x4  Data  Lc  iarwstd.o [5]
__iar_sh_write          0x080110e9    0x20  Code  Gb  iarwrite.o [5]
__iar_ui2d              0x08010e57          Code  Gb  I32ToDbl.o [4]
__iar_zero_init2        0x08011179    0x1a  Code  Gb  zero_init2.o [4]
__low_level_init        0x08011693     0x4  Code  Gb  low_level_init.o [3]
__vector_table          0x08000000   0x140  Data  Gb  stm32f10x_vector.o [1]
__write                 0x0801146d    0x10  Code  Gb  write.o [5]
_exit                   0x0801147d          Code  Gb  cexit.o [4]
_main                   0x0801124f          Code  Gb  cmain.o [4]
abort                   0x08011679     0x8  Code  Gb  abort.o [3]
bDeviceState            0x2000d578     0x4  Data  Gb  usb_pwr.o [1]
bIntPackSOF             0x2000d5b4     0x1  Data  Gb  usb_istr.o [1]
bm_cnt                  0x2000d5a8     0x1  Data  Gb  PaperDetect.o [1]
bt_connect_status       0x2000d5a2     0x1  Data  Lc  BT816.o [1]
buffer                  0x2000a4f4  0x1000  Data  Lc  spi_flash.o [1]
buffer_out              0x2000d3a4    0x40  Data  Gb  usb_endp.o [1]
check_fs                0x08000be9    0x78  Code  Lc  ff.o [1]
chk_chr                 0x08000185    0x14  Code  Lc  ff.o [1]
chk_mounted             0x08000c61   0x364  Code  Lc  ff.o [1]
clearlocks              0x08010389    0x26  Code  Lc  xsyslock.o [3]
clmt_clust              0x0800063f    0x2a  Code  Lc  ff.o [1]
clr_all_dot             0x2000d5a9     0x1  Data  Gb  TP.o [1]
clust2sect              0x080002e3    0x18  Code  Gb  ff.o [1]
crc32                   0x08010f41    0x28  Code  Gb  crc32.o [1]
crc32_tab               0x0800c700   0x400  Data  Lc  crc32.o [1]
create_chain            0x08000585    0xba  Code  Lc  ff.o [1]
create_name             0x080009bd   0x194  Code  Lc  ff.o [1]
current_cache_block     0x2000d548     0x4  Data  Lc  spi_flash.o [1]
current_channel         0x2000d5ab     0x1  Data  Gb  esc_p.o [1]
data_uart_init          0x080101b1    0x88  Code  Gb  data_uart.o [1]
debug_buffer            0x20005274  0x3e80  Data  Gb  main.o [1]
debug_cnt               0x2000d518     0x4  Data  Gb  main.o [1]
delay_ms                0x0800f3d1    0x1a  Code  Gb  TimeBase.o [1]
dir_find                0x0800084f    0x62  Code  Lc  ff.o [1]
dir_next                0x08000719   0x136  Code  Lc  ff.o [1]
dir_read                0x080008b1    0x5c  Code  Lc  ff.o [1]
dir_register            0x0800090d    0x7e  Code  Lc  ff.o [1]
dir_remove              0x0800098b    0x30  Code  Lc  ff.o [1]
dir_sdi                 0x08000669    0xb0  Code  Lc  ff.o [1]
disk_initialize         0x0800fc3d    0x12  Code  Gb  diskio.o [1]
disk_ioctl              0x0800fce9    0x3c  Code  Gb  diskio.o [1]
disk_read               0x0800fc65    0x44  Code  Gb  diskio.o [1]
disk_status             0x0800fc53    0x12  Code  Gb  diskio.o [1]
disk_write              0x0800fca9    0x38  Code  Gb  diskio.o [1]
div                     0x08011499     0xe  Code  Gb  div.o [3]
double_byte             0x08001f51    0x6a  Code  Lc  esc_p.o [1]
dwPictureLBA            0x2000d540     0x4  Data  Gb  res_spi_new.o [1]
ebuf                    0x2000d244    0x50  Data  Lc  xfiles.o [3]
enter_u_disk_mode       0x0800d7b1    0x3c  Code  Gb  main.o [1]
esc_init                0x08002201    0x1c  Code  Gb  esc_p.o [1]
esc_p                   0x08002221  0x120c  Code  Gb  esc_p.o [1]
esc_p_init              0x08001fbd   0x240  Code  Gb  esc_p.o [1]
esc_sts                 0x20000df0  0x4484  Data  Gb  esc_p.o [1]
event_init              0x0800f171     0xc  Code  Gb  Event.o [1]
event_pend              0x0800f197    0x2a  Code  Gb  Event.o [1]
event_post              0x0800f17d    0x1a  Code  Gb  Event.o [1]
event_proc              0x0800f1cd    0xd4  Code  Gb  Event.o [1]
evtHead                 0x2000d5a3     0x1  Data  Lc  Event.o [1]
evtQueue                0x2000d2e4    0x40  Data  Lc  Event.o [1]
evtTail                 0x2000d5a4     0x1  Data  Lc  Event.o [1]
exit                    0x08011681     0x6  Code  Gb  exit.o [3]
f_close                 0x080014c7    0x18  Code  Gb  ff.o [1]
f_lseek                 0x080014df   0x30c  Code  Gb  ff.o [1]
f_mkfs                  0x080018b5   0x69c  Code  Gb  ff.o [1]
f_mount                 0x08000ff1    0x34  Code  Gb  ff.o [1]
f_open                  0x08001025   0x1e2  Code  Gb  ff.o [1]
f_read                  0x08001207   0x204  Code  Gb  ff.o [1]
f_sync                  0x0800140b    0xbc  Code  Gb  ff.o [1]
f_unlink                0x080017eb    0xc8  Code  Gb  ff.o [1]
fatfs_sector_offset     0x2000d550     0x4  Data  Gb  spi_flash.o [1]
fflush                  0x08010175    0x3c  Code  Gb  fflush.o [3]
fflushOne               0x08010101    0x74  Code  Lc  fflush.o [3]
flash_state             0x2000d5ae     0x1  Data  Lc  spi_flash.o [1]
flasize                 0x2000d544     0x4  Data  Gb  spi_flash.o [1]
follow_path             0x08000b51    0x94  Code  Lc  ff.o [1]
font_data_read          0x0800c635    0xc8  Code  Gb  res_spi_new.o [1]
fonta_en                0x080069c4   0xd80  Data  Gb  res_spi_new.o [1]
fontb_en                0x0800aaf4   0x600  Data  Gb  res_spi_new.o [1]
fputc                   0x08010239    0x20  Code  Gb  data_uart.o [1]
free                    0x0801049d    0x88  Code  Gb  xxmemxfree.o [3]
fs                      0x2000c804   0x230  Data  Gb  res_spi_new.o [1]
g_mass_storage_device_type
                        0x2000d5af     0x1  Data  Gb  usb_app_config.o [1]
g_param                 0x2000d324    0x40  Data  Gb  Terminal_Para_m.o [1]
g_usb_type              0x2000d5b0     0x1  Data  Gb  usb_app_config.o [1]
get_fat                 0x080002fb    0xf4  Code  Gb  ff.o [1]
get_fattime             0x0800fc4f     0x4  Code  Gb  diskio.o [1]
get_spi_flash_capacity  0x0800a929     0x6  Code  Gb  spi_flash.o [1]
hard_fault_handler_c    0x0800cb05    0xe4  Code  Gb  stm32f10x_it.o [1]
id_array                0x08010bdc    0x40  Data  Gb  spi_flash.o [1]
keyStatus               0x2000d5a5     0x1  Data  Lc  KeyScan.o [1]
localeconv              0x0801135d    0x14  Code  Gb  localeconv.o [3]
main                    0x0800d7ed   0x114  Code  Gb  main.o [1]
malloc                  0x0800fee1    0xbc  Code  Gb  xxmemxmalloc.o [3]
max_start_col           0x2000d594     0x2  Data  Gb  DotFill.o [1]
mem_cmp                 0x08000165    0x20  Code  Lc  ff.o [1]
mem_cpy                 0x08000141    0x14  Code  Lc  ff.o [1]
mem_set                 0x08000155    0x10  Code  Lc  ff.o [1]
memchr                  0x08010971          Code  Gb  memchr.o [4]
memcmp                  0x08010855          Code  Gb  memcmp.o [4]
memcpy                  0x0801148b     0xe  Code  Wk  BT816.o [1]
memset                  0x08011385    0x14  Code  Wk  BT816.o [1]
move_window             0x08000199    0x74  Code  Lc  ff.o [1]
mtx                     0x2000d4a8    0x10  Data  Lc  xsyslock.o [3]
mtxdst                  0x2000d584     0x4  Data  Lc  MtxWrapper.o [3]
mtxinit                 0x2000d580     0x4  Data  Lc  MtxWrapper.o [3]
mtxlock                 0x2000d588     0x4  Data  Lc  MtxWrapper.o [3]
mtxunlock               0x2000d58c     0x4  Data  Lc  MtxWrapper.o [3]
next_abi_dtor_rec       0x2000d8e8     0x4  Data  Lc  cppinit.o [3]
obuf                    0x2000d294    0x50  Data  Lc  xfiles.o [3]
out                     0x08010525    0x20  Code  Lc  xreportassert.o [3]
pEpInt_IN               0x2000d860    0x1c  Data  Gb  usb_istr.o [1]
pEpInt_OUT              0x2000d87c    0x1c  Data  Gb  usb_istr.o [1]
pInformation            0x2000d568     0x4  Data  Gb  usb_init.o [1]
pProperty               0x2000d56c     0x4  Data  Gb  usb_init.o [1]
pUser_Standard_Requests
                        0x2000d570     0x4  Data  Gb  usb_init.o [1]
p_allocate_addr         0x2000ce5c   0x190  Data  Lc  JMemory.o [1]
papercnt                0x2000d5a7     0x1  Data  Gb  PaperDetect.o [1]
param_format            0x0800807d     0xe  Code  Gb  record_mod.o [1]
param_init              0x080083c9     0xe  Code  Gb  record_mod.o [1]
param_mod_state         0x2000d5aa     0x1  Data  Lc  Terminal_Para_m.o [1]
param_read              0x0800808d   0x108  Code  Gb  record_mod.o [1]
param_write             0x08008195   0x234  Code  Gb  record_mod.o [1]
port_status             0x2000d5b5     0x1  Data  Gb  usb_prop.o [1]
print_data_len          0x2000d564     0x4  Data  Gb  usb_endp.o [1]
print_device_reset      0x0800ba61    0x18  Code  Lc  usb_prop.o [1]
print_head_SPI_init     0x0800fe0d    0x7c  Code  Lc  print_head.o [1]
print_head_init         0x0800fe89    0x14  Code  Gb  print_head.o [1]
print_head_spi_send_byte
                        0x0800fe9d    0x40  Code  Gb  print_head.o [1]
printersts              0x2000d5a6     0x1  Data  Gb  PaperDetect.o [1]
printf                  0x080110a9    0x20  Code  Gb  printf.o [3]
put_fat                 0x080003ef   0x126  Code  Gb  ff.o [1]
putchar                 0x080115f9     0xc  Code  Gb  putchar.o [3]
read_resdata            0x0800c3dd    0x16  Code  Gb  res_spi_new.o [1]
rec_copy4kblk           0x08007825    0x62  Code  Lc  record_mod.o [1]
rec_getindex            0x08007887    0x18  Code  Lc  record_mod.o [1]
rec_getrecspc           0x0800777d    0x3a  Code  Lc  record_mod.o [1]
rec_readsimprit         0x08007745    0x38  Code  Lc  record_mod.o [1]
rec_writesimprit        0x080077b7    0x62  Code  Lc  record_mod.o [1]
recinfo                 0x2000d414    0x2c  Data  Lc  record_mod.o [1]
recmod_flasize          0x2000d54c     0x4  Data  Gb  spi_flash.o [1]
record_count            0x08007fe1    0x96  Code  Gb  record_mod.o [1]
record_format           0x080078a1   0x2bc  Code  Gb  record_mod.o [1]
record_init             0x08007b5d   0x47c  Code  Gb  record_mod.o [1]
remove_chain            0x08000515    0x70  Code  Lc  ff.o [1]
res_buffer              0x2000cc5c   0x200  Data  Lc  res_spi_new.o [1]
res_init                0x0800c359    0x80  Code  Gb  res_spi_new.o [1]
res_loadres             0x0800c2f5    0x40  Code  Lc  res_spi_new.o [1]
res_upgrade             0x0800c3f5   0x23c  Code  Gb  res_spi_new.o [1]
resource_file           0x2000ca34   0x228  Data  Lc  res_spi_new.o [1]
restbl                  0x08010d4c    0x34  Data  Gb  ThermalDetect.o [1]
ringbuffer_data_len     0x0800345d    0x44  Code  Lc  BT816.o [1]
ringbuffer_data_len     0x0800da5d    0x44  Code  Lc  ringbuffer.o [1]
ringbuffer_data_len     0x0800e17d    0x44  Code  Lc  uart.o [1]
ringbuffer_data_len     0x0800fb79    0x44  Code  Lc  usb_endp.o [1]
ringbuffer_getchar      0x0800dc27    0x64  Code  Gb  ringbuffer.o [1]
ringbuffer_init         0x0800daa1    0x60  Code  Gb  ringbuffer.o [1]
ringbuffer_put          0x0800db01    0xc2  Code  Gb  ringbuffer.o [1]
ringbuffer_putchar      0x0800dbc3    0x64  Code  Gb  ringbuffer.o [1]
ringbuffer_reset        0x0800dc95    0x22  Code  Gb  ringbuffer.o [1]
ringbuffer_status       0x08003435    0x28  Code  Lc  BT816.o [1]
ringbuffer_status       0x0800da35    0x28  Code  Lc  ringbuffer.o [1]
ringbuffer_status       0x0800e155    0x28  Code  Lc  uart.o [1]
ringbuffer_status       0x0800fb51    0x28  Code  Lc  usb_endp.o [1]
send_data_to_BT         0x08003cf9   0x154  Code  Lc  BT816.o [1]
setup_font              0x0800c335    0x1c  Code  Gb  res_spi_new.o [1]
setup_picture           0x0800c351     0x6  Code  Gb  res_spi_new.o [1]
simprit                 0x2000d4b8    0x10  Data  Lc  record_mod.o [1]
snprintf                0x08010c5d    0x40  Code  Gb  snprintf.o [3]
spi_flash_eraseblock    0x0800a4d5    0x44  Code  Gb  spi_flash.o [1]
spi_flash_erasesector   0x0800a491    0x44  Code  Gb  spi_flash.o [1]
spi_flash_init          0x0800a2e5   0x184  Code  Gb  spi_flash.o [1]
spi_flash_page_write    0x0800a5ed    0x5c  Code  Gb  spi_flash.o [1]
spi_flash_post_write    0x0800a92f    0x6c  Code  Gb  spi_flash.o [1]
spi_flash_raddr         0x0800a80f    0x50  Code  Gb  spi_flash.o [1]
spi_flash_read          0x0800aa5f    0x88  Code  Gb  spi_flash.o [1]
spi_flash_rpage         0x0800a519    0x78  Code  Gb  spi_flash.o [1]
spi_flash_send_byte     0x0800a85f    0x48  Code  Gb  spi_flash.o [1]
spi_flash_valid         0x0800a469    0x22  Code  Gb  spi_flash.o [1]
spi_flash_waddr         0x0800a649   0x1c6  Code  Gb  spi_flash.o [1]
spi_flash_wait_for_write_end
                        0x0800a8cb    0x58  Code  Gb  spi_flash.o [1]
spi_flash_wpage         0x0800a591    0x5c  Code  Gb  spi_flash.o [1]
spi_flash_write         0x0800a99b    0xc4  Code  Gb  spi_flash.o [1]
spi_flash_write_enable  0x0800a8ad    0x1e  Code  Gb  spi_flash.o [1]
spp_rec_buffer          0x200090f4  0x1400  Data  Gb  uart.o [1]
spp_ringbuf             0x2000d1f4    0x50  Data  Gb  uart.o [1]
strchr                  0x08011255          Code  Gb  strchr.o [4]
strcpy                  0x08010b55          Code  Gb  strcpy.o [4]
strlen                  0x08010d15          Code  Gb  strlen.o [4]
sync                    0x0800020d    0xd6  Code  Lc  ff.o [1]
syslock_o               0x2000d4a4     0x4  Data  Lc  xsyslock.o [3]
system_error_tip        0x0800d7ad     0x2  Code  Gb  main.o [1]
systick_cnt             0x2000d510     0x4  Data  Gb  PaperDetect.o [1]
tp                      0x2000cfec   0x188  Data  Lc  TP.o [1]
usb_Get_SerialNum       0x0800f6cd    0x68  Code  Gb  usb_app_config.o [1]
usb_Interrupts_Config   0x0800f63d    0x40  Code  Lc  usb_app_config.o [1]
usb_SetClock            0x0800f621    0x1c  Code  Lc  usb_app_config.o [1]
usb_cable_insert        0x0800f67d     0x2  Code  Gb  usb_app_config.o [1]
usb_device_init         0x0800f681    0x4c  Code  Gb  usb_app_config.o [1]
v_timer_list            0x2000d4d8     0x8  Data  Gb  TimeBase.o [1]
validate                0x08000fc5    0x2c  Code  Lc  ff.o [1]
wInterrupt_Mask         0x2000d59a     0x2  Data  Gb  usb_init.o [1]
wIstr                   0x2000d5a0     0x2  Data  Gb  usb_istr.o [1]


[1] = E:\BT Printer\FW\src\Project\EWARMv5\Debug\Obj
[2] = command line
[3] = dl7M_tl_if.a
[4] = rt7M_tl.a
[5] = shb_l.a

  62 518 bytes of readonly  code memory
   9 353 bytes of readonly  data memory
  55 514 bytes of readwrite data memory

Errors: none
Warnings: none
